Archive member included because of file (symbol)

contiki-sky.a(contiki-sky-pla)
                              obj_sky/contiki-sky-main.o (init_platform)
contiki-sky.a(button-sensor.o)
                              udp-server.co (button_sensor)
contiki-sky.a(ds2411.o)       obj_sky/contiki-sky-main.o (ds2411_init)
contiki-sky.a(xmem.o)         obj_sky/contiki-sky-main.o (xmem_init)
contiki-sky.a(node-id.o)      obj_sky/contiki-sky-main.o (node_id_restore)
contiki-sky.a(sensors.o)      udp-server.co (sensors_event)
contiki-sky.a(cc2420.o)       obj_sky/contiki-sky-main.o (cc2420_set_pan_addr)
contiki-sky.a(cc2420-arch.o)  contiki-sky.a(cc2420.o) (cc2420_arch_init)
contiki-sky.a(uart1.o)        obj_sky/contiki-sky-main.o (uart1_active)
contiki-sky.a(uart1-putchar.o)
                              udp-server.co (putchar)
contiki-sky.a(msp430.o)       contiki-sky.a(uart1.o) (msp430_add_lpm_req)
contiki-sky.a(clock.o)        obj_sky/contiki-sky-main.o (clock_init)
contiki-sky.a(leds.o)         obj_sky/contiki-sky-main.o (leds_init)
contiki-sky.a(leds-arch.o)    contiki-sky.a(leds.o) (leds_arch_init)
contiki-sky.a(watchdog.o)     obj_sky/contiki-sky-main.o (watchdog_start)
contiki-sky.a(rtimer-arch.o)  obj_sky/contiki-sky-main.o (rtimer_arch_now)
contiki-sky.a(autostart.o)    obj_sky/contiki-sky-main.o (autostart_start)
contiki-sky.a(ctimer.o)       obj_sky/contiki-sky-main.o (ctimer_init)
contiki-sky.a(energest.o)     obj_sky/contiki-sky-main.o (energest_init)
contiki-sky.a(etimer.o)       contiki-sky.a(clock.o) (etimer_request_poll)
contiki-sky.a(process.o)      udp-server.co (process_current)
contiki-sky.a(rtimer.o)       obj_sky/contiki-sky-main.o (rtimer_init)
contiki-sky.a(timer.o)        obj_sky/contiki-sky-main.o (timer_set)
contiki-sky.a(list.o)         contiki-sky.a(ctimer.o) (list_init)
contiki-sky.a(random.o)       obj_sky/contiki-sky-main.o (random_init)
contiki-sky.a(sicslowpan.o)   obj_sky/contiki-sky-main.o (sicslowpan_driver)
contiki-sky.a(uip6.o)         udp-server.co (uip_aligned_buf)
contiki-sky.a(uip-ds6.o)      contiki-sky.a(uip6.o) (uip_ds6_is_addr_onlink)
contiki-sky.a(uip-ds6-nbr.o)  contiki-sky.a(uip-ds6.o) (uip_ds6_neighbors_init)
contiki-sky.a(uip-ds6-route.o)
                              contiki-sky.a(uip-ds6.o) (uip_ds6_route_init)
contiki-sky.a(uip-icmp6.o)    contiki-sky.a(uip6.o) (uip_icmp6_input)
contiki-sky.a(uip-nd6.o)      contiki-sky.a(uip6.o) (uip_nd6_init)
contiki-sky.a(tcpip.o)        contiki-sky.a(sicslowpan.o) (tcpip_set_outputfunc)
contiki-sky.a(uip-debug.o)    udp-server.co (uip_debug_ipaddr_print)
contiki-sky.a(rpl.o)          contiki-sky.a(uip-ds6-nbr.o) (rpl_link_neighbor_callback)
contiki-sky.a(rpl-dag.o)      contiki-sky.a(rpl.o) (rpl_dag_init)
contiki-sky.a(rpl-ext-header.)
                              contiki-sky.a(uip6.o) (rpl_verify_hbh_header)
contiki-sky.a(rpl-icmp6.o)    contiki-sky.a(rpl-dag.o) (rpl_icmp6_update_nbr_table)
contiki-sky.a(rpl-mrhof.o)    contiki-sky.a(rpl-dag.o) (rpl_mrhof)
contiki-sky.a(rpl-timers.o)   contiki-sky.a(rpl.o) (rpl_reset_periodic_timer)
contiki-sky.a(csma.o)         udp-server.co (csma_driver)
contiki-sky.a(framer-802154.o)
                              contiki-sky.a(sicslowpan.o) (framer_802154)
contiki-sky.a(mac.o)          contiki-sky.a(csma.o) (mac_call_sent_callback)
contiki-sky.a(nullrdc.o)      obj_sky/contiki-sky-main.o (nullrdc_driver)
contiki-sky.a(linkaddr.o)     obj_sky/contiki-sky-main.o (linkaddr_copy)
contiki-sky.a(link-stats.o)   contiki-sky.a(rpl-dag.o) (link_stats_from_lladdr)
contiki-sky.a(nbr-table.o)    contiki-sky.a(uip-ds6-nbr.o) (nbr_table_register)
contiki-sky.a(packetbuf.o)    contiki-sky.a(framer-802154.o) (packetbuf_hdrreduce)
contiki-sky.a(queuebuf.o)     obj_sky/contiki-sky-main.o (queuebuf_init)
contiki-sky.a(nullsec.o)      obj_sky/contiki-sky-main.o (nullsec_driver)
contiki-sky.a(serial-shell.o)
                              udp-server.co (serial_shell_init)
contiki-sky.a(shell.o)        contiki-sky.a(serial-shell.o) (shell_input)
contiki-sky.a(shell-reboot.o)
                              udp-server.co (shell_reboot_init)
contiki-sky.a(shell-blink.o)  udp-server.co (shell_blink_init)
contiki-sky.a(shell-text.o)   udp-server.co (shell_text_init)
contiki-sky.a(shell-time.o)   udp-server.co (shell_time_init)
contiki-sky.a(shell-powertrac)
                              udp-server.co (shell_powertrace_init)
contiki-sky.a(shell-sky.o)    udp-server.co (shell_sky_init)
contiki-sky.a(powertrace.o)   contiki-sky.a(shell-powertrac) (powertrace_print)
contiki-sky.a(shell-rime.o)   udp-server.co (shell_rime_init)
contiki-sky.a(shell-rime-netc)
                              udp-server.co (shell_rime_netcmd_init)
contiki-sky.a(shell-collect-v)
                              udp-server.co (shell_collect_view_init)
contiki-sky.a(broadcast-annou)
                              contiki-sky.a(shell-collect-v) (broadcast_announcement_beacon_interval)
contiki-sky.a(broadcast.o)    contiki-sky.a(broadcast-annou) (broadcast_open)
contiki-sky.a(channel.o)      contiki-sky.a(broadcast.o) (channel_set_attributes)
contiki-sky.a(collect.o)      contiki-sky.a(shell-rime.o) (collect_open)
contiki-sky.a(collect-link-es)
                              contiki-sky.a(collect.o) (collect_link_estimate_num_estimates)
contiki-sky.a(collect-neighbo)
                              contiki-sky.a(collect.o) (collect_neighbor_init)
contiki-sky.a(packetqueue.o)  contiki-sky.a(collect.o) (packetqueue_enqueue_packetbuf)
contiki-sky.a(route.o)        contiki-sky.a(shell-rime.o) (route_num)
contiki-sky.a(trickle.o)      contiki-sky.a(shell-rime-netc) (trickle_open)
contiki-sky.a(unicast.o)      contiki-sky.a(collect.o) (unicast_open)
contiki-sky.a(sht11-sensor.o)
                              contiki-sky.a(shell-sky.o) (sht11_sensor)
contiki-sky.a(light-sensor.o)
                              contiki-sky.a(shell-sky.o) (light_sensor)
contiki-sky.a(battery-sensor.)
                              contiki-sky.a(shell-sky.o) (battery_sensor)
contiki-sky.a(spi.o)          contiki-sky.a(xmem.o) (spi_init)
contiki-sky.a(sky-sensors.o)  contiki-sky.a(light-sensor.o) (sky_sensors_status)
contiki-sky.a(crc16.o)        contiki-sky.a(shell-rime.o) (crc16_data)
contiki-sky.a(compower.o)     contiki-sky.a(powertrace.o) (compower_idle_activity)
contiki-sky.a(stimer.o)       contiki-sky.a(uip-ds6.o) (stimer_set)
contiki-sky.a(serial-line.o)  contiki-sky.a(serial-shell.o) (serial_line_event_message)
contiki-sky.a(memb.o)         contiki-sky.a(uip-ds6-route.o) (memb_init)
contiki-sky.a(ringbuf.o)      contiki-sky.a(serial-line.o) (ringbuf_init)
contiki-sky.a(rpl-nbr-policy.)
                              contiki-sky.a(nbr-table.o) (rpl_nbr_policy_find_removable)
contiki-sky.a(frame802154.o)  contiki-sky.a(framer-802154.o) (frame802154_get_pan_id)
contiki-sky.a(mac-sequence.o)
                              contiki-sky.a(nullrdc.o) (mac_sequence_is_duplicate)
contiki-sky.a(collect-view.o)
                              contiki-sky.a(shell-collect-v) (collect_view_construct_message)
contiki-sky.a(collect-view-sk)
                              contiki-sky.a(collect-view.o) (collect_view_arch_read_sensors)
contiki-sky.a(abc.o)          contiki-sky.a(broadcast.o) (abc_open)
contiki-sky.a(announcement.o)
                              contiki-sky.a(collect.o) (announcement_register)
contiki-sky.a(chameleon.o)    contiki-sky.a(channel.o) (chameleon_hdrsize)
contiki-sky.a(rime.o)         contiki-sky.a(abc.o) (rime_output)
contiki-sky.a(sht11.o)        contiki-sky.a(sht11-sensor.o) (sht11_init)
contiki-sky.a(chameleon-bitop)
                              contiki-sky.a(chameleon.o) (chameleon_bitopt)
/usr/lib/gcc/msp430/4.6.3/mmpy-16/libgcc.a(_mulsi3.o)
                              contiki-sky.a(rpl.o) (__mulsi3)
/usr/lib/gcc/msp430/4.6.3/mmpy-16/libgcc.a(_udivmod16.o)
                              contiki-sky.a(rpl-dag.o) (__udivhi3)
/usr/lib/gcc/msp430/4.6.3/mmpy-16/libgcc.a(_divmod16.o)
                              contiki-sky.a(sicslowpan.o) (__divhi3)
/usr/lib/gcc/msp430/4.6.3/mmpy-16/libgcc.a(_udivmod32.o)
                              obj_sky/contiki-sky-main.o (__udivsi3)
/usr/lib/gcc/msp430/4.6.3/mmpy-16/libgcc.a(_divmod32.o)
                              contiki-sky.a(link-stats.o) (__divsi3)
/usr/lib/gcc/msp430/4.6.3/../../../../msp430/lib/mmpy-16/libc.a(strchr.o)
                              contiki-sky.a(shell.o) (strchr)
/usr/lib/gcc/msp430/4.6.3/../../../../msp430/lib/mmpy-16/libc.a(strcmp.o)
                              contiki-sky.a(shell.o) (strcmp)
/usr/lib/gcc/msp430/4.6.3/../../../../msp430/lib/mmpy-16/libc.a(strncmp.o)
                              contiki-sky.a(sensors.o) (strncmp)
/usr/lib/gcc/msp430/4.6.3/../../../../msp430/lib/mmpy-16/libc.a(memcmp.o)
                              contiki-sky.a(sicslowpan.o) (memcmp)
/usr/lib/gcc/msp430/4.6.3/../../../../msp430/lib/mmpy-16/libc.a(strcpy.o)
                              contiki-sky.a(shell-rime-netc) (strcpy)
/usr/lib/gcc/msp430/4.6.3/../../../../msp430/lib/mmpy-16/libc.a(strncpy.o)
                              contiki-sky.a(shell-time.o) (strncpy)
/usr/lib/gcc/msp430/4.6.3/../../../../msp430/lib/mmpy-16/libc.a(memcpy.o)
                              obj_sky/contiki-sky-main.o (memcpy)
/usr/lib/gcc/msp430/4.6.3/../../../../msp430/lib/mmpy-16/libc.a(memmove.o)
                              contiki-sky.a(sicslowpan.o) (memmove)
/usr/lib/gcc/msp430/4.6.3/../../../../msp430/lib/mmpy-16/libc.a(memset.o)
                              obj_sky/contiki-sky-main.o (memset)
/usr/lib/gcc/msp430/4.6.3/../../../../msp430/lib/mmpy-16/libc.a(printf.o)
                              udp-server.co (printf)
/usr/lib/gcc/msp430/4.6.3/../../../../msp430/lib/mmpy-16/libc.a(sprintf.o)
                              contiki-sky.a(shell-text.o) (sprintf)
/usr/lib/gcc/msp430/4.6.3/../../../../msp430/lib/mmpy-16/libc.a(vuprintf.o)
                              /usr/lib/gcc/msp430/4.6.3/../../../../msp430/lib/mmpy-16/libc.a(printf.o) (vuprintf)
/usr/lib/gcc/msp430/4.6.3/../../../../msp430/lib/mmpy-16/libc.a(puts.o)
                              udp-server.co (puts)
/usr/lib/gcc/msp430/4.6.3/../../../../msp430/lib/mmpy-16/libc.a(rand.o)
                              contiki-sky.a(random.o) (rand)
/usr/lib/gcc/msp430/4.6.3/mmpy-16/libgcc.a(_udivmod64.o)
                              /usr/lib/gcc/msp430/4.6.3/../../../../msp430/lib/mmpy-16/libc.a(vuprintf.o) (__udivdi3)
/usr/lib/gcc/msp430/4.6.3/mmpy-16/libcrt0.a(_reset_vector__.o)
                              (_reset_vector__)
/usr/lib/gcc/msp430/4.6.3/mmpy-16/libcrt0.a(__watchdog_support.o)
                              /usr/lib/gcc/msp430/4.6.3/mmpy-16/libcrt0.a(_reset_vector__.o) (__watchdog_support)
/usr/lib/gcc/msp430/4.6.3/mmpy-16/libcrt0.a(__init_stack.o)
                              /usr/lib/gcc/msp430/4.6.3/mmpy-16/libcrt0.a(_reset_vector__.o) (__init_stack)
/usr/lib/gcc/msp430/4.6.3/mmpy-16/libcrt0.a(__low_level_init.o)
                              /usr/lib/gcc/msp430/4.6.3/mmpy-16/libcrt0.a(_reset_vector__.o) (__low_level_init)
/usr/lib/gcc/msp430/4.6.3/mmpy-16/libcrt0.a(_copy_data.o)
                              /usr/lib/gcc/msp430/4.6.3/mmpy-16/libcrt0.a(_reset_vector__.o) (__do_copy_data)
/usr/lib/gcc/msp430/4.6.3/mmpy-16/libcrt0.a(_clear_bss.o)
                              /usr/lib/gcc/msp430/4.6.3/mmpy-16/libcrt0.a(_reset_vector__.o) (__do_clear_bss)
/usr/lib/gcc/msp430/4.6.3/mmpy-16/libcrt0.a(__stop_progExec__.o)
                              /usr/lib/gcc/msp430/4.6.3/mmpy-16/libcrt0.a(_reset_vector__.o) (__stop_progExec__)
/usr/lib/gcc/msp430/4.6.3/mmpy-16/libcrt0.a(_endless_loop__.o)
                              /usr/lib/gcc/msp430/4.6.3/mmpy-16/libcrt0.a(_reset_vector__.o) (_endless_loop__)
/usr/lib/gcc/msp430/4.6.3/mmpy-16/libcrt0.a(_unexpected_.o)
                              /usr/lib/gcc/msp430/4.6.3/mmpy-16/crt0ivtbl16.o (_unexpected_)

Allocating common symbols
Common symbol       size              file

compower_idle_activity
                    0x8               contiki-sky.a(compower.o)
energest_total_time
                    0x30              contiki-sky.a(energest.o)
uip_ds6_timer_ra    0x8               contiki-sky.a(uip-ds6.o)
cc2420_last_rssi    0x1               contiki-sky.a(cc2420.o)
uip_ds6_if          0xec              contiki-sky.a(uip-ds6.o)
uip_ds6_netif_addr_list_offset
                    0x1               contiki-sky.a(uip-ds6.o)
uip_len             0x2               contiki-sky.a(uip6.o)
energest_total_count
                    0x2               contiki-sky.a(energest.o)
cc2420_sfd_start_time
                    0x2               contiki-sky.a(cc2420.o)
cc2420_time_of_departure
                    0x2               contiki-sky.a(cc2420.o)
cc2420_time_of_arrival
                    0x2               contiki-sky.a(cc2420.o)
uip_ds6_addr_size   0x1               contiki-sky.a(uip-ds6.o)
uip_sappdata        0x2               contiki-sky.a(uip6.o)
energest_current_mode
                    0xc               contiki-sky.a(energest.o)
packetbuf_addrs     0x10              contiki-sky.a(packetbuf.o)
uip_acc32           0x4               contiki-sky.a(uip6.o)
uip_ds6_prefix_list
                    0x5a              contiki-sky.a(uip-ds6.o)
process_maxevents   0x1               contiki-sky.a(process.o)
uip_lladdr          0x8               contiki-sky.a(uip6.o)
uip_aligned_buf     0xf0              contiki-sky.a(uip6.o)
uip_flags           0x1               contiki-sky.a(uip6.o)
periodic_timer      0x14              contiki-sky.a(link-stats.o)
uip_ds6_timer_periodic
                    0xc               contiki-sky.a(uip-ds6.o)
shell_event_input   0x2               contiki-sky.a(shell.o)
uip_next_hdr        0x2               contiki-sky.a(uip6.o)
cc2420_last_correlation
                    0x1               contiki-sky.a(cc2420.o)
linkaddr_node_addr  0x8               contiki-sky.a(linkaddr.o)
default_instance    0x2               contiki-sky.a(rpl-dag.o)
cc2420_authority_level_of_sender
                    0x2               contiki-sky.a(cc2420.o)
uip_udp_conn        0x2               contiki-sky.a(uip6.o)
packetbuf_attrs     0x1e              contiki-sky.a(packetbuf.o)
msp430_dco_required
                    0x2               contiki-sky.a(msp430.o)
cc2420_sfd_counter  0x1               contiki-sky.a(cc2420.o)
instance_table      0xfe              contiki-sky.a(rpl-dag.o)
uip_appdata         0x2               contiki-sky.a(uip6.o)
shell_collect_conn  0xaa              contiki-sky.a(shell-rime.o)
uip_conn            0x2               contiki-sky.a(uip6.o)
tcpip_event         0x1               contiki-sky.a(tcpip.o)
uip_conns           0xb0              contiki-sky.a(uip6.o)
uip_listenports     0x10              contiki-sky.a(uip6.o)
stats               0x38              contiki-sky.a(collect.o)
energest_current_time
                    0x18              contiki-sky.a(energest.o)
sensors_flags       0x2               contiki-sky.a(contiki-sky-pla)
serial_line_event_message
                    0x1               contiki-sky.a(serial-line.o)
cc2420_sfd_end_time
                    0x2               contiki-sky.a(cc2420.o)
sensors_event       0x1               contiki-sky.a(sensors.o)
ds2411_id           0x8               contiki-sky.a(ds2411.o)
uip_slen            0x2               contiki-sky.a(uip6.o)
uip_udp_conns       0x138             contiki-sky.a(uip6.o)

Discarded input sections

 .data          0x00000000        0x0 /usr/lib/gcc/msp430/4.6.3/mmpy-16/crt0ivtbl16.o
 .bss           0x00000000        0x0 /usr/lib/gcc/msp430/4.6.3/mmpy-16/crt0ivtbl16.o
 .text.crt0     0x00000000        0x0 /usr/lib/gcc/msp430/4.6.3/mmpy-16/crt0ivtbl16.o
 .text          0x00000000        0x0 udp-server.co
 .text          0x00000000        0x0 obj_sky/contiki-sky-main.o
 .data          0x00000000        0x0 obj_sky/contiki-sky-main.o
 .text.uip_log  0x00000000        0x6 obj_sky/contiki-sky-main.o
 .text          0x00000000        0x0 contiki-sky.a(contiki-sky-pla)
 .bss           0x00000000        0x0 contiki-sky.a(contiki-sky-pla)
 .text          0x00000000        0x0 contiki-sky.a(button-sensor.o)
 .data          0x00000000        0x0 contiki-sky.a(button-sensor.o)
 .text          0x00000000        0x0 contiki-sky.a(ds2411.o)
 .data          0x00000000        0x0 contiki-sky.a(ds2411.o)
 .bss           0x00000000        0x0 contiki-sky.a(ds2411.o)
 .text          0x00000000        0x0 contiki-sky.a(xmem.o)
 .data          0x00000000        0x0 contiki-sky.a(xmem.o)
 .bss           0x00000000        0x0 contiki-sky.a(xmem.o)
 .text          0x00000000        0x0 contiki-sky.a(node-id.o)
 .data          0x00000000        0x0 contiki-sky.a(node-id.o)
 .text          0x00000000        0x0 contiki-sky.a(sensors.o)
 .text.sensors_first
                0x00000000        0x6 contiki-sky.a(sensors.o)
 .text.sensors_next
                0x00000000       0x2c contiki-sky.a(sensors.o)
 .text.sensors_find
                0x00000000       0x4e contiki-sky.a(sensors.o)
 .text          0x00000000        0x0 contiki-sky.a(cc2420.o)
 .text          0x00000000        0x0 contiki-sky.a(cc2420-arch.o)
 .data          0x00000000        0x0 contiki-sky.a(cc2420-arch.o)
 .bss           0x00000000        0x0 contiki-sky.a(cc2420-arch.o)
 .text          0x00000000        0x0 contiki-sky.a(uart1.o)
 .data          0x00000000        0x0 contiki-sky.a(uart1.o)
 .text.handle_rxdma_timer
                0x00000000       0x3a contiki-sky.a(uart1.o)
 .text.uart1_set_input
                0x00000000       0x20 contiki-sky.a(uart1.o)
 .text          0x00000000        0x0 contiki-sky.a(uart1-putchar.o)
 .data          0x00000000        0x0 contiki-sky.a(uart1-putchar.o)
 .bss           0x00000000        0x0 contiki-sky.a(uart1-putchar.o)
 .text          0x00000000        0x0 contiki-sky.a(msp430.o)
 .bss           0x00000000        0x0 contiki-sky.a(msp430.o)
 .text.msp430_remove_lpm_req
                0x00000000        0xc contiki-sky.a(msp430.o)
 .text.sbrk     0x00000000       0x5a contiki-sky.a(msp430.o)
 .text          0x00000000        0x0 contiki-sky.a(clock.o)
 .data          0x00000000        0x0 contiki-sky.a(clock.o)
 .text.clock_set
                0x00000000       0x16 contiki-sky.a(clock.o)
 .text.clock_fine_max
                0x00000000        0x6 contiki-sky.a(clock.o)
 .text.clock_fine
                0x00000000        0xc contiki-sky.a(clock.o)
 .text.clock_set_seconds
                0x00000000       0x1c contiki-sky.a(clock.o)
 .text.clock_counter
                0x00000000        0xe contiki-sky.a(clock.o)
 .text          0x00000000        0x0 contiki-sky.a(leds.o)
 .data          0x00000000        0x0 contiki-sky.a(leds.o)
 .text.leds_get
                0x00000000        0x6 contiki-sky.a(leds.o)
 .text.leds_set
                0x00000000        0x6 contiki-sky.a(leds.o)
 .text.leds_blink
                0x00000000       0x20 contiki-sky.a(leds.o)
 .text          0x00000000        0x0 contiki-sky.a(leds-arch.o)
 .data          0x00000000        0x0 contiki-sky.a(leds-arch.o)
 .bss           0x00000000        0x0 contiki-sky.a(leds-arch.o)
 .text.leds_arch_get
                0x00000000       0x30 contiki-sky.a(leds-arch.o)
 .text          0x00000000        0x0 contiki-sky.a(watchdog.o)
 .data          0x00000000        0x0 contiki-sky.a(watchdog.o)
 .text          0x00000000        0x0 contiki-sky.a(rtimer-arch.o)
 .data          0x00000000        0x0 contiki-sky.a(rtimer-arch.o)
 .bss           0x00000000        0x0 contiki-sky.a(rtimer-arch.o)
 .text          0x00000000        0x0 contiki-sky.a(autostart.o)
 .data          0x00000000        0x0 contiki-sky.a(autostart.o)
 .bss           0x00000000        0x0 contiki-sky.a(autostart.o)
 .text.autostart_exit
                0x00000000       0x14 contiki-sky.a(autostart.o)
 .text          0x00000000        0x0 contiki-sky.a(ctimer.o)
 .text.ctimer_expired
                0x00000000       0x32 contiki-sky.a(ctimer.o)
 .text          0x00000000        0x0 contiki-sky.a(energest.o)
 .data          0x00000000        0x0 contiki-sky.a(energest.o)
 .bss           0x00000000        0x0 contiki-sky.a(energest.o)
 .text.energest_leveldevice_leveltime
                0x00000000        0x6 contiki-sky.a(energest.o)
 .text          0x00000000        0x0 contiki-sky.a(etimer.o)
 .text.etimer_reset_with_new_interval
                0x00000000       0x26 contiki-sky.a(etimer.o)
 .text.etimer_adjust
                0x00000000       0x1a contiki-sky.a(etimer.o)
 .text.etimer_start_time
                0x00000000        0x8 contiki-sky.a(etimer.o)
 .text          0x00000000        0x0 contiki-sky.a(process.o)
 .data          0x00000000        0x0 contiki-sky.a(process.o)
 .text          0x00000000        0x0 contiki-sky.a(rtimer.o)
 .data          0x00000000        0x0 contiki-sky.a(rtimer.o)
 .text.rtimer_set
                0x00000000       0x24 contiki-sky.a(rtimer.o)
 .text          0x00000000        0x0 contiki-sky.a(timer.o)
 .data          0x00000000        0x0 contiki-sky.a(timer.o)
 .bss           0x00000000        0x0 contiki-sky.a(timer.o)
 .text.timer_remaining
                0x00000000       0x28 contiki-sky.a(timer.o)
 .text          0x00000000        0x0 contiki-sky.a(list.o)
 .data          0x00000000        0x0 contiki-sky.a(list.o)
 .bss           0x00000000        0x0 contiki-sky.a(list.o)
 .text.list_copy
                0x00000000        0x6 contiki-sky.a(list.o)
 .text.list_chop
                0x00000000       0x24 contiki-sky.a(list.o)
 .text.list_pop
                0x00000000        0xe contiki-sky.a(list.o)
 .text          0x00000000        0x0 contiki-sky.a(random.o)
 .data          0x00000000        0x0 contiki-sky.a(random.o)
 .bss           0x00000000        0x0 contiki-sky.a(random.o)
 .text          0x00000000        0x0 contiki-sky.a(sicslowpan.o)
 .data          0x00000000        0x0 contiki-sky.a(sicslowpan.o)
 .text.sicslowpan_get_last_rssi
                0x00000000        0x6 contiki-sky.a(sicslowpan.o)
 .text          0x00000000        0x0 contiki-sky.a(uip6.o)
 .data          0x00000000        0x0 contiki-sky.a(uip6.o)
 .text.uip_chksum
                0x00000000       0x18 contiki-sky.a(uip6.o)
 .text.uip_connect
                0x00000000      0x11a contiki-sky.a(uip6.o)
 .text.uip_listen
                0x00000000       0x1e contiki-sky.a(uip6.o)
 .text.uip_htons
                0x00000000        0xc contiki-sky.a(uip6.o)
 .text.uip_send
                0x00000000       0x74 contiki-sky.a(uip6.o)
 .text          0x00000000        0x0 contiki-sky.a(uip-ds6.o)
 .data          0x00000000        0x0 contiki-sky.a(uip-ds6.o)
 .text.uip_ds6_prefix_rm
                0x00000000        0xa contiki-sky.a(uip-ds6.o)
 .text.uip_ds6_prefix_lookup
                0x00000000       0x28 contiki-sky.a(uip-ds6.o)
 .text.uip_ds6_get_global
                0x00000000       0x3e contiki-sky.a(uip-ds6.o)
 .text.uip_ds6_maddr_rm
                0x00000000        0xa contiki-sky.a(uip-ds6.o)
 .text.uip_ds6_aaddr_add
                0x00000000       0x4a contiki-sky.a(uip-ds6.o)
 .text.uip_ds6_aaddr_rm
                0x00000000        0xa contiki-sky.a(uip-ds6.o)
 .text.uip_ds6_aaddr_lookup
                0x00000000       0x28 contiki-sky.a(uip-ds6.o)
 .text          0x00000000        0x0 contiki-sky.a(uip-ds6-nbr.o)
 .text.uip_ds6_nbr_get_ipaddr
                0x00000000        0x2 contiki-sky.a(uip-ds6-nbr.o)
 .text.uip_ds6_nbr_num
                0x00000000       0x24 contiki-sky.a(uip-ds6-nbr.o)
 .text          0x00000000        0x0 contiki-sky.a(uip-ds6-route.o)
 .text.uip_ds6_notification_add
                0x00000000       0x18 contiki-sky.a(uip-ds6-route.o)
 .text.uip_ds6_notification_rm
                0x00000000        0xc contiki-sky.a(uip-ds6-route.o)
 .text.uip_ds6_route_num_routes
                0x00000000        0x6 contiki-sky.a(uip-ds6-route.o)
 .text.uip_ds6_route_rm_by_nexthop
                0x00000000       0x14 contiki-sky.a(uip-ds6-route.o)
 .text.uip_ds6_defrt_head
                0x00000000        0xa contiki-sky.a(uip-ds6-route.o)
 .text          0x00000000        0x0 contiki-sky.a(uip-icmp6.o)
 .text.uip_icmp6_echo_reply_callback_add
                0x00000000       0x18 contiki-sky.a(uip-icmp6.o)
 .text.uip_icmp6_echo_reply_callback_rm
                0x00000000        0xc contiki-sky.a(uip-icmp6.o)
 .text          0x00000000        0x0 contiki-sky.a(uip-nd6.o)
 .text          0x00000000        0x0 contiki-sky.a(tcpip.o)
 .text.tcp_unlisten
                0x00000000       0x26 contiki-sky.a(tcpip.o)
 .text.tcp_listen
                0x00000000       0x24 contiki-sky.a(tcpip.o)
 .text.tcp_attach
                0x00000000        0xc contiki-sky.a(tcpip.o)
 .text.udp_attach
                0x00000000        0xc contiki-sky.a(tcpip.o)
 .text.udp_broadcast_new
                0x00000000       0x46 contiki-sky.a(tcpip.o)
 .text.tcpip_poll_udp
                0x00000000        0xe contiki-sky.a(tcpip.o)
 .text.tcpip_poll_tcp
                0x00000000        0xe contiki-sky.a(tcpip.o)
 .text.tcp_connect
                0x00000000       0x26 contiki-sky.a(tcpip.o)
 .text          0x00000000        0x0 contiki-sky.a(uip-debug.o)
 .data          0x00000000        0x0 contiki-sky.a(uip-debug.o)
 .bss           0x00000000        0x0 contiki-sky.a(uip-debug.o)
 .text          0x00000000        0x0 contiki-sky.a(rpl.o)
 .data          0x00000000        0x0 contiki-sky.a(rpl.o)
 .text.rpl_set_mode
                0x00000000       0x52 contiki-sky.a(rpl.o)
 .text          0x00000000        0x0 contiki-sky.a(rpl-dag.o)
 .text.rpl_get_parent_rank
                0x00000000       0x18 contiki-sky.a(rpl-dag.o)
 .text.rpl_get_parent_link_metric
                0x00000000       0x2e contiki-sky.a(rpl-dag.o)
 .text.rpl_get_nbr
                0x00000000       0x18 contiki-sky.a(rpl-dag.o)
 .rodata        0x00000000       0x84 contiki-sky.a(rpl-dag.o)
 .text.rpl_print_neighbor_list
                0x00000000      0x12a contiki-sky.a(rpl-dag.o)
 .text.rpl_set_default_instance
                0x00000000        0x6 contiki-sky.a(rpl-dag.o)
 .text.rpl_get_default_instance
                0x00000000        0x6 contiki-sky.a(rpl-dag.o)
 .text.rpl_free_instance
                0x00000000       0x70 contiki-sky.a(rpl-dag.o)
 .text.rpl_has_downward_route
                0x00000000       0x16 contiki-sky.a(rpl-dag.o)
 .text          0x00000000        0x0 contiki-sky.a(rpl-ext-header.)
 .data          0x00000000        0x0 contiki-sky.a(rpl-ext-header.)
 .bss           0x00000000        0x0 contiki-sky.a(rpl-ext-header.)
 .text          0x00000000        0x0 contiki-sky.a(rpl-icmp6.o)
 .bss           0x00000000        0x0 contiki-sky.a(rpl-icmp6.o)
 .text.dao_ack_output
                0x00000000        0x2 contiki-sky.a(rpl-icmp6.o)
 .text          0x00000000        0x0 contiki-sky.a(rpl-mrhof.o)
 .bss           0x00000000        0x0 contiki-sky.a(rpl-mrhof.o)
 .text          0x00000000        0x0 contiki-sky.a(rpl-timers.o)
 .data          0x00000000        0x0 contiki-sky.a(rpl-timers.o)
 .text.rpl_schedule_dao_immediately
                0x00000000        0xa contiki-sky.a(rpl-timers.o)
 .text.rpl_cancel_dao
                0x00000000       0x1a contiki-sky.a(rpl-timers.o)
 .text          0x00000000        0x0 contiki-sky.a(csma.o)
 .text          0x00000000        0x0 contiki-sky.a(framer-802154.o)
 .data          0x00000000        0x0 contiki-sky.a(framer-802154.o)
 .text          0x00000000        0x0 contiki-sky.a(mac.o)
 .data          0x00000000        0x0 contiki-sky.a(mac.o)
 .bss           0x00000000        0x0 contiki-sky.a(mac.o)
 .text          0x00000000        0x0 contiki-sky.a(nullrdc.o)
 .data          0x00000000        0x0 contiki-sky.a(nullrdc.o)
 .bss           0x00000000        0x0 contiki-sky.a(nullrdc.o)
 .text          0x00000000        0x0 contiki-sky.a(linkaddr.o)
 .data          0x00000000        0x0 contiki-sky.a(linkaddr.o)
 .bss           0x00000000        0x0 contiki-sky.a(linkaddr.o)
 .text          0x00000000        0x0 contiki-sky.a(link-stats.o)
 .text.guess_etx_from_rssi
                0x00000000       0x42 contiki-sky.a(link-stats.o)
 .text          0x00000000        0x0 contiki-sky.a(nbr-table.o)
 .text          0x00000000        0x0 contiki-sky.a(packetbuf.o)
 .data          0x00000000        0x0 contiki-sky.a(packetbuf.o)
 .text.packetbuf_remaininglen
                0x00000000        0xe contiki-sky.a(packetbuf.o)
 .text          0x00000000        0x0 contiki-sky.a(queuebuf.o)
 .text.queuebuf_update_from_packetbuf
                0x00000000       0x22 contiki-sky.a(queuebuf.o)
 .text.queuebuf_datalen
                0x00000000        0x8 contiki-sky.a(queuebuf.o)
 .text.queuebuf_addr
                0x00000000       0x12 contiki-sky.a(queuebuf.o)
 .text.queuebuf_debug_print
                0x00000000        0x2 contiki-sky.a(queuebuf.o)
 .text          0x00000000        0x0 contiki-sky.a(nullsec.o)
 .data          0x00000000        0x0 contiki-sky.a(nullsec.o)
 .bss           0x00000000        0x0 contiki-sky.a(nullsec.o)
 .text          0x00000000        0x0 contiki-sky.a(serial-shell.o)
 .bss           0x00000000        0x0 contiki-sky.a(serial-shell.o)
 .text          0x00000000        0x0 contiki-sky.a(shell.o)
 .text.shell_unregister_command
                0x00000000        0xc contiki-sky.a(shell.o)
 .text.shell_start
                0x00000000       0x26 contiki-sky.a(shell.o)
 .text.shell_stop
                0x00000000        0x6 contiki-sky.a(shell.o)
 .text.shell_quit
                0x00000000       0x16 contiki-sky.a(shell.o)
 .text          0x00000000        0x0 contiki-sky.a(shell-reboot.o)
 .text          0x00000000        0x0 contiki-sky.a(shell-blink.o)
 .text          0x00000000        0x0 contiki-sky.a(shell-text.o)
 .text          0x00000000        0x0 contiki-sky.a(shell-time.o)
 .text          0x00000000        0x0 contiki-sky.a(shell-powertrac)
 .bss           0x00000000        0x0 contiki-sky.a(shell-powertrac)
 .text          0x00000000        0x0 contiki-sky.a(shell-sky.o)
 .text          0x00000000        0x0 contiki-sky.a(powertrace.o)
 .text          0x00000000        0x0 contiki-sky.a(shell-rime.o)
 .text          0x00000000        0x0 contiki-sky.a(shell-rime-netc)
 .text          0x00000000        0x0 contiki-sky.a(shell-collect-v)
 .bss           0x00000000        0x0 contiki-sky.a(shell-collect-v)
 .text          0x00000000        0x0 contiki-sky.a(broadcast-annou)
 .data          0x00000000        0x0 contiki-sky.a(broadcast-annou)
 .text.adv_packet_sent
                0x00000000        0x2 contiki-sky.a(broadcast-annou)
 .text.adv_packet_received
                0x00000000       0x66 contiki-sky.a(broadcast-annou)
 .text.set_timers
                0x00000000       0x4a contiki-sky.a(broadcast-annou)
 .text.send_timer
                0x00000000       0x36 contiki-sky.a(broadcast-annou)
 .text.new_announcement
                0x00000000       0x18 contiki-sky.a(broadcast-annou)
 .text.send_adv
                0x00000000       0x66 contiki-sky.a(broadcast-annou)
 .text.broadcast_announcement_init
                0x00000000       0x48 contiki-sky.a(broadcast-annou)
 .text.broadcast_announcement_stop
                0x00000000       0x22 contiki-sky.a(broadcast-annou)
 .rodata        0x00000000        0x4 contiki-sky.a(broadcast-annou)
 .text          0x00000000        0x0 contiki-sky.a(broadcast.o)
 .data          0x00000000        0x0 contiki-sky.a(broadcast.o)
 .bss           0x00000000        0x0 contiki-sky.a(broadcast.o)
 .text.broadcast_close
                0x00000000        0x6 contiki-sky.a(broadcast.o)
 .text          0x00000000        0x0 contiki-sky.a(channel.o)
 .data          0x00000000        0x0 contiki-sky.a(channel.o)
 .text.channel_init
                0x00000000        0xa contiki-sky.a(channel.o)
 .text.channel_close
                0x00000000        0xc contiki-sky.a(channel.o)
 .text          0x00000000        0x0 contiki-sky.a(collect.o)
 .text.collect_close
                0x00000000       0x2c contiki-sky.a(collect.o)
 .text.collect_depth
                0x00000000        0x6 contiki-sky.a(collect.o)
 .text.collect_parent
                0x00000000        0x6 contiki-sky.a(collect.o)
 .text.collect_purge
                0x00000000       0x34 contiki-sky.a(collect.o)
 .text.collect_print_stats
                0x00000000        0x2 contiki-sky.a(collect.o)
 .text          0x00000000        0x0 contiki-sky.a(collect-link-es)
 .data          0x00000000        0x0 contiki-sky.a(collect-link-es)
 .bss           0x00000000        0x0 contiki-sky.a(collect-link-es)
 .text.collect_link_estimate_update_rx
                0x00000000        0x2 contiki-sky.a(collect-link-es)
 .text          0x00000000        0x0 contiki-sky.a(collect-neighbo)
 .text.collect_neighbor_list_remove
                0x00000000       0x2e contiki-sky.a(collect-neighbo)
 .text.collect_neighbor_list_get
                0x00000000       0x2e contiki-sky.a(collect-neighbo)
 .text.collect_neighbor_list_purge
                0x00000000       0x2c contiki-sky.a(collect-neighbo)
 .text.collect_neighbor_rx
                0x00000000       0x18 contiki-sky.a(collect-neighbo)
 .text          0x00000000        0x0 contiki-sky.a(packetqueue.o)
 .data          0x00000000        0x0 contiki-sky.a(packetqueue.o)
 .bss           0x00000000        0x0 contiki-sky.a(packetqueue.o)
 .text.packetqueue_init
                0x00000000       0x18 contiki-sky.a(packetqueue.o)
 .text.packetqueue_ptr
                0x00000000        0xe contiki-sky.a(packetqueue.o)
 .text          0x00000000        0x0 contiki-sky.a(route.o)
 .data          0x00000000        0xa contiki-sky.a(route.o)
 .text.periodic
                0x00000000       0x58 contiki-sky.a(route.o)
 .text.route_init
                0x00000000       0x28 contiki-sky.a(route.o)
 .text.route_lookup
                0x00000000       0x4c contiki-sky.a(route.o)
 .text.route_add
                0x00000000       0xa0 contiki-sky.a(route.o)
 .text.route_refresh
                0x00000000        0xe contiki-sky.a(route.o)
 .text.route_remove
                0x00000000       0x1c contiki-sky.a(route.o)
 .text.route_decay
                0x00000000       0x22 contiki-sky.a(route.o)
 .text.route_flush_all
                0x00000000       0x1a contiki-sky.a(route.o)
 .text.route_set_lifetime
                0x00000000        0x6 contiki-sky.a(route.o)
 .text          0x00000000        0x0 contiki-sky.a(trickle.o)
 .data          0x00000000        0x0 contiki-sky.a(trickle.o)
 .bss           0x00000000        0x0 contiki-sky.a(trickle.o)
 .text.trickle_close
                0x00000000       0x20 contiki-sky.a(trickle.o)
 .text          0x00000000        0x0 contiki-sky.a(unicast.o)
 .data          0x00000000        0x0 contiki-sky.a(unicast.o)
 .bss           0x00000000        0x0 contiki-sky.a(unicast.o)
 .text.unicast_close
                0x00000000        0x6 contiki-sky.a(unicast.o)
 .text          0x00000000        0x0 contiki-sky.a(sht11-sensor.o)
 .bss           0x00000000        0x0 contiki-sky.a(sht11-sensor.o)
 .text          0x00000000        0x0 contiki-sky.a(light-sensor.o)
 .data          0x00000000        0x0 contiki-sky.a(light-sensor.o)
 .bss           0x00000000        0x0 contiki-sky.a(light-sensor.o)
 .text          0x00000000        0x0 contiki-sky.a(battery-sensor.)
 .data          0x00000000        0x0 contiki-sky.a(battery-sensor.)
 .bss           0x00000000        0x0 contiki-sky.a(battery-sensor.)
 .text          0x00000000        0x0 contiki-sky.a(spi.o)
 .data          0x00000000        0x0 contiki-sky.a(spi.o)
 .bss           0x00000000        0x2 contiki-sky.a(spi.o)
 .text          0x00000000        0x0 contiki-sky.a(sky-sensors.o)
 .data          0x00000000        0x0 contiki-sky.a(sky-sensors.o)
 .text          0x00000000        0x0 contiki-sky.a(crc16.o)
 .data          0x00000000        0x0 contiki-sky.a(crc16.o)
 .bss           0x00000000        0x0 contiki-sky.a(crc16.o)
 .text          0x00000000        0x0 contiki-sky.a(compower.o)
 .data          0x00000000        0x0 contiki-sky.a(compower.o)
 .bss           0x00000000        0x8 contiki-sky.a(compower.o)
 .text.compower_accumulate
                0x00000000       0x72 contiki-sky.a(compower.o)
 .text.compower_clear
                0x00000000       0x12 contiki-sky.a(compower.o)
 .text.compower_init
                0x00000000        0xa contiki-sky.a(compower.o)
 .text.compower_attrconv
                0x00000000       0x10 contiki-sky.a(compower.o)
 .text.compower_accumulate_attrs
                0x00000000       0x20 contiki-sky.a(compower.o)
 .text          0x00000000        0x0 contiki-sky.a(stimer.o)
 .data          0x00000000        0x0 contiki-sky.a(stimer.o)
 .bss           0x00000000        0x0 contiki-sky.a(stimer.o)
 .text.stimer_reset
                0x00000000        0xe contiki-sky.a(stimer.o)
 .text.stimer_restart
                0x00000000       0x14 contiki-sky.a(stimer.o)
 .text.stimer_remaining
                0x00000000       0x28 contiki-sky.a(stimer.o)
 .text.stimer_elapsed
                0x00000000       0x12 contiki-sky.a(stimer.o)
 .text          0x00000000        0x0 contiki-sky.a(serial-line.o)
 .data          0x00000000        0xa contiki-sky.a(serial-line.o)
 .bss           0x00000000      0x10a contiki-sky.a(serial-line.o)
 .text.process_thread_serial_line_process
                0x00000000       0x9c contiki-sky.a(serial-line.o)
 .text.serial_line_input_byte
                0x00000000       0x4a contiki-sky.a(serial-line.o)
 .text.serial_line_init
                0x00000000       0x1c contiki-sky.a(serial-line.o)
 .rodata        0x00000000        0xe contiki-sky.a(serial-line.o)
 .text          0x00000000        0x0 contiki-sky.a(memb.o)
 .data          0x00000000        0x0 contiki-sky.a(memb.o)
 .bss           0x00000000        0x0 contiki-sky.a(memb.o)
 .text          0x00000000        0x0 contiki-sky.a(ringbuf.o)
 .data          0x00000000        0x0 contiki-sky.a(ringbuf.o)
 .bss           0x00000000        0x0 contiki-sky.a(ringbuf.o)
 .text.ringbuf_init
                0x00000000       0x14 contiki-sky.a(ringbuf.o)
 .text.ringbuf_put
                0x00000000       0x38 contiki-sky.a(ringbuf.o)
 .text.ringbuf_get
                0x00000000       0x34 contiki-sky.a(ringbuf.o)
 .text.ringbuf_size
                0x00000000        0x8 contiki-sky.a(ringbuf.o)
 .text.ringbuf_elements
                0x00000000       0x12 contiki-sky.a(ringbuf.o)
 .text          0x00000000        0x0 contiki-sky.a(rpl-nbr-policy.)
 .data          0x00000000        0x0 contiki-sky.a(rpl-nbr-policy.)
 .text          0x00000000        0x0 contiki-sky.a(frame802154.o)
 .bss           0x00000000        0x0 contiki-sky.a(frame802154.o)
 .text.frame802154_set_pan_id
                0x00000000        0x6 contiki-sky.a(frame802154.o)
 .text.frame802154_check_dest_panid
                0x00000000       0x3c contiki-sky.a(frame802154.o)
 .text.frame802154_extract_linkaddr
                0x00000000       0x9c contiki-sky.a(frame802154.o)
 .text          0x00000000        0x0 contiki-sky.a(mac-sequence.o)
 .data          0x00000000        0x0 contiki-sky.a(mac-sequence.o)
 .text          0x00000000        0x0 contiki-sky.a(collect-view.o)
 .data          0x00000000        0x0 contiki-sky.a(collect-view.o)
 .text          0x00000000        0x0 contiki-sky.a(collect-view-sk)
 .data          0x00000000        0x0 contiki-sky.a(collect-view-sk)
 .bss           0x00000000        0x0 contiki-sky.a(collect-view-sk)
 .text          0x00000000        0x0 contiki-sky.a(abc.o)
 .data          0x00000000        0x0 contiki-sky.a(abc.o)
 .bss           0x00000000        0x0 contiki-sky.a(abc.o)
 .text.abc_close
                0x00000000        0x6 contiki-sky.a(abc.o)
 .text.abc_input
                0x00000000        0xe contiki-sky.a(abc.o)
 .text          0x00000000        0x0 contiki-sky.a(announcement.o)
 .data          0x00000000        0x0 contiki-sky.a(announcement.o)
 .text.announcement_init
                0x00000000        0xa contiki-sky.a(announcement.o)
 .text.announcement_remove
                0x00000000        0xc contiki-sky.a(announcement.o)
 .text.announcement_remove_value
                0x00000000       0x22 contiki-sky.a(announcement.o)
 .text.announcement_listen
                0x00000000        0xc contiki-sky.a(announcement.o)
 .text.announcement_register_listen_callback
                0x00000000        0x6 contiki-sky.a(announcement.o)
 .text.announcement_register_observer_callback
                0x00000000        0x6 contiki-sky.a(announcement.o)
 .text.announcement_list
                0x00000000        0xa contiki-sky.a(announcement.o)
 .text.announcement_heard
                0x00000000       0x42 contiki-sky.a(announcement.o)
 .text          0x00000000        0x0 contiki-sky.a(chameleon.o)
 .data          0x00000000        0x0 contiki-sky.a(chameleon.o)
 .bss           0x00000000        0x0 contiki-sky.a(chameleon.o)
 .text.chameleon_init
                0x00000000        0x6 contiki-sky.a(chameleon.o)
 .text.chameleon_parse
                0x00000000       0x10 contiki-sky.a(chameleon.o)
 .text          0x00000000        0x0 contiki-sky.a(rime.o)
 .data          0x00000000        0x0 contiki-sky.a(rime.o)
 .text.input    0x00000000       0x3a contiki-sky.a(rime.o)
 .text.init     0x00000000       0x2e contiki-sky.a(rime.o)
 .text.rime_sniffer_add
                0x00000000        0xc contiki-sky.a(rime.o)
 .text.rime_sniffer_remove
                0x00000000        0xc contiki-sky.a(rime.o)
 .rodata        0x00000000        0xc contiki-sky.a(rime.o)
 .text          0x00000000        0x0 contiki-sky.a(sht11.o)
 .data          0x00000000        0x0 contiki-sky.a(sht11.o)
 .bss           0x00000000        0x0 contiki-sky.a(sht11.o)
 .text          0x00000000        0x0 contiki-sky.a(chameleon-bitop)
 .data          0x00000000        0x0 contiki-sky.a(chameleon-bitop)
 .bss           0x00000000        0x0 contiki-sky.a(chameleon-bitop)
 .text          0x00000000        0x0 /usr/lib/gcc/msp430/4.6.3/mmpy-16/libgcc.a(_mulsi3.o)
 .data          0x00000000        0x0 /usr/lib/gcc/msp430/4.6.3/mmpy-16/libgcc.a(_mulsi3.o)
 .bss           0x00000000        0x0 /usr/lib/gcc/msp430/4.6.3/mmpy-16/libgcc.a(_mulsi3.o)
 .text          0x00000000        0x0 /usr/lib/gcc/msp430/4.6.3/mmpy-16/libgcc.a(_udivmod16.o)
 .data          0x00000000        0x0 /usr/lib/gcc/msp430/4.6.3/mmpy-16/libgcc.a(_udivmod16.o)
 .bss           0x00000000        0x0 /usr/lib/gcc/msp430/4.6.3/mmpy-16/libgcc.a(_udivmod16.o)
 .text          0x00000000        0x0 /usr/lib/gcc/msp430/4.6.3/mmpy-16/libgcc.a(_divmod16.o)
 .data          0x00000000        0x0 /usr/lib/gcc/msp430/4.6.3/mmpy-16/libgcc.a(_divmod16.o)
 .bss           0x00000000        0x0 /usr/lib/gcc/msp430/4.6.3/mmpy-16/libgcc.a(_divmod16.o)
 .text          0x00000000        0x0 /usr/lib/gcc/msp430/4.6.3/mmpy-16/libgcc.a(_udivmod32.o)
 .data          0x00000000        0x0 /usr/lib/gcc/msp430/4.6.3/mmpy-16/libgcc.a(_udivmod32.o)
 .bss           0x00000000        0x0 /usr/lib/gcc/msp430/4.6.3/mmpy-16/libgcc.a(_udivmod32.o)
 .text          0x00000000        0x0 /usr/lib/gcc/msp430/4.6.3/mmpy-16/libgcc.a(_divmod32.o)
 .data          0x00000000        0x0 /usr/lib/gcc/msp430/4.6.3/mmpy-16/libgcc.a(_divmod32.o)
 .bss           0x00000000        0x0 /usr/lib/gcc/msp430/4.6.3/mmpy-16/libgcc.a(_divmod32.o)
 .data          0x00000000        0x0 /usr/lib/gcc/msp430/4.6.3/../../../../msp430/lib/mmpy-16/libc.a(strchr.o)
 .bss           0x00000000        0x0 /usr/lib/gcc/msp430/4.6.3/../../../../msp430/lib/mmpy-16/libc.a(strchr.o)
 .data          0x00000000        0x0 /usr/lib/gcc/msp430/4.6.3/../../../../msp430/lib/mmpy-16/libc.a(strcmp.o)
 .bss           0x00000000        0x0 /usr/lib/gcc/msp430/4.6.3/../../../../msp430/lib/mmpy-16/libc.a(strcmp.o)
 .data          0x00000000        0x0 /usr/lib/gcc/msp430/4.6.3/../../../../msp430/lib/mmpy-16/libc.a(strncmp.o)
 .bss           0x00000000        0x0 /usr/lib/gcc/msp430/4.6.3/../../../../msp430/lib/mmpy-16/libc.a(strncmp.o)
 .data          0x00000000        0x0 /usr/lib/gcc/msp430/4.6.3/../../../../msp430/lib/mmpy-16/libc.a(memcmp.o)
 .bss           0x00000000        0x0 /usr/lib/gcc/msp430/4.6.3/../../../../msp430/lib/mmpy-16/libc.a(memcmp.o)
 .data          0x00000000        0x0 /usr/lib/gcc/msp430/4.6.3/../../../../msp430/lib/mmpy-16/libc.a(strcpy.o)
 .bss           0x00000000        0x0 /usr/lib/gcc/msp430/4.6.3/../../../../msp430/lib/mmpy-16/libc.a(strcpy.o)
 .data          0x00000000        0x0 /usr/lib/gcc/msp430/4.6.3/../../../../msp430/lib/mmpy-16/libc.a(strncpy.o)
 .bss           0x00000000        0x0 /usr/lib/gcc/msp430/4.6.3/../../../../msp430/lib/mmpy-16/libc.a(strncpy.o)
 .data          0x00000000        0x0 /usr/lib/gcc/msp430/4.6.3/../../../../msp430/lib/mmpy-16/libc.a(memcpy.o)
 .bss           0x00000000        0x0 /usr/lib/gcc/msp430/4.6.3/../../../../msp430/lib/mmpy-16/libc.a(memcpy.o)
 .data          0x00000000        0x0 /usr/lib/gcc/msp430/4.6.3/../../../../msp430/lib/mmpy-16/libc.a(memmove.o)
 .bss           0x00000000        0x0 /usr/lib/gcc/msp430/4.6.3/../../../../msp430/lib/mmpy-16/libc.a(memmove.o)
 .data          0x00000000        0x0 /usr/lib/gcc/msp430/4.6.3/../../../../msp430/lib/mmpy-16/libc.a(memset.o)
 .bss           0x00000000        0x0 /usr/lib/gcc/msp430/4.6.3/../../../../msp430/lib/mmpy-16/libc.a(memset.o)
 .data          0x00000000        0x0 /usr/lib/gcc/msp430/4.6.3/../../../../msp430/lib/mmpy-16/libc.a(printf.o)
 .bss           0x00000000        0x0 /usr/lib/gcc/msp430/4.6.3/../../../../msp430/lib/mmpy-16/libc.a(printf.o)
 .data          0x00000000        0x0 /usr/lib/gcc/msp430/4.6.3/../../../../msp430/lib/mmpy-16/libc.a(sprintf.o)
 .data          0x00000000        0x0 /usr/lib/gcc/msp430/4.6.3/../../../../msp430/lib/mmpy-16/libc.a(vuprintf.o)
 .bss           0x00000000        0x0 /usr/lib/gcc/msp430/4.6.3/../../../../msp430/lib/mmpy-16/libc.a(vuprintf.o)
 .data          0x00000000        0x0 /usr/lib/gcc/msp430/4.6.3/../../../../msp430/lib/mmpy-16/libc.a(puts.o)
 .bss           0x00000000        0x0 /usr/lib/gcc/msp430/4.6.3/../../../../msp430/lib/mmpy-16/libc.a(puts.o)
 .bss           0x00000000        0x0 /usr/lib/gcc/msp430/4.6.3/../../../../msp430/lib/mmpy-16/libc.a(rand.o)
 .text          0x00000000        0x0 /usr/lib/gcc/msp430/4.6.3/mmpy-16/libgcc.a(_udivmod64.o)
 .data          0x00000000        0x0 /usr/lib/gcc/msp430/4.6.3/mmpy-16/libgcc.a(_udivmod64.o)
 .bss           0x00000000        0x0 /usr/lib/gcc/msp430/4.6.3/mmpy-16/libgcc.a(_udivmod64.o)
 .text          0x00000000        0x0 /usr/lib/gcc/msp430/4.6.3/mmpy-16/libcrt0.a(_reset_vector__.o)
 .data          0x00000000        0x0 /usr/lib/gcc/msp430/4.6.3/mmpy-16/libcrt0.a(_reset_vector__.o)
 .bss           0x00000000        0x0 /usr/lib/gcc/msp430/4.6.3/mmpy-16/libcrt0.a(_reset_vector__.o)
 .text          0x00000000        0x0 /usr/lib/gcc/msp430/4.6.3/mmpy-16/libcrt0.a(__watchdog_support.o)
 .data          0x00000000        0x0 /usr/lib/gcc/msp430/4.6.3/mmpy-16/libcrt0.a(__watchdog_support.o)
 .bss           0x00000000        0x0 /usr/lib/gcc/msp430/4.6.3/mmpy-16/libcrt0.a(__watchdog_support.o)
 .text          0x00000000        0x0 /usr/lib/gcc/msp430/4.6.3/mmpy-16/libcrt0.a(__init_stack.o)
 .data          0x00000000        0x0 /usr/lib/gcc/msp430/4.6.3/mmpy-16/libcrt0.a(__init_stack.o)
 .bss           0x00000000        0x0 /usr/lib/gcc/msp430/4.6.3/mmpy-16/libcrt0.a(__init_stack.o)
 .text          0x00000000        0x0 /usr/lib/gcc/msp430/4.6.3/mmpy-16/libcrt0.a(__low_level_init.o)
 .data          0x00000000        0x0 /usr/lib/gcc/msp430/4.6.3/mmpy-16/libcrt0.a(__low_level_init.o)
 .bss           0x00000000        0x0 /usr/lib/gcc/msp430/4.6.3/mmpy-16/libcrt0.a(__low_level_init.o)
 .text          0x00000000        0x0 /usr/lib/gcc/msp430/4.6.3/mmpy-16/libcrt0.a(_copy_data.o)
 .data          0x00000000        0x0 /usr/lib/gcc/msp430/4.6.3/mmpy-16/libcrt0.a(_copy_data.o)
 .bss           0x00000000        0x0 /usr/lib/gcc/msp430/4.6.3/mmpy-16/libcrt0.a(_copy_data.o)
 .text          0x00000000        0x0 /usr/lib/gcc/msp430/4.6.3/mmpy-16/libcrt0.a(_clear_bss.o)
 .data          0x00000000        0x0 /usr/lib/gcc/msp430/4.6.3/mmpy-16/libcrt0.a(_clear_bss.o)
 .bss           0x00000000        0x0 /usr/lib/gcc/msp430/4.6.3/mmpy-16/libcrt0.a(_clear_bss.o)
 .text          0x00000000        0x0 /usr/lib/gcc/msp430/4.6.3/mmpy-16/libcrt0.a(__stop_progExec__.o)
 .data          0x00000000        0x0 /usr/lib/gcc/msp430/4.6.3/mmpy-16/libcrt0.a(__stop_progExec__.o)
 .bss           0x00000000        0x0 /usr/lib/gcc/msp430/4.6.3/mmpy-16/libcrt0.a(__stop_progExec__.o)
 .text          0x00000000        0x0 /usr/lib/gcc/msp430/4.6.3/mmpy-16/libcrt0.a(_endless_loop__.o)
 .data          0x00000000        0x0 /usr/lib/gcc/msp430/4.6.3/mmpy-16/libcrt0.a(_endless_loop__.o)
 .bss           0x00000000        0x0 /usr/lib/gcc/msp430/4.6.3/mmpy-16/libcrt0.a(_endless_loop__.o)
 .text          0x00000000        0x0 /usr/lib/gcc/msp430/4.6.3/mmpy-16/libcrt0.a(_unexpected_.o)
 .data          0x00000000        0x0 /usr/lib/gcc/msp430/4.6.3/mmpy-16/libcrt0.a(_unexpected_.o)
 .bss           0x00000000        0x0 /usr/lib/gcc/msp430/4.6.3/mmpy-16/libcrt0.a(_unexpected_.o)

Memory Configuration

Name             Origin             Length             Attributes
sfr              0x00000000         0x00000010
peripheral_8bit  0x00000010         0x000000f0
peripheral_16bit 0x00000100         0x00000100
ram_mirror       0x00000200         0x00000800         xw
infomem          0x00001000         0x00000100
infob            0x00001000         0x00000080
infoa            0x00001080         0x00000080
ram              0x00001100         0x00002800         xw
rom              0x00004000         0x0000bfe0         xr
vectors          0x0000ffe0         0x00000020
bsl              0x00000000         0x00000000
infoc            0x00000000         0x00000000
infod            0x00000000         0x00000000
ram2             0x00000000         0x00000000         xw
usbram           0x00000000         0x00000000         xw
far_rom          0x00000000         0x00000000
*default*        0x00000000         0xffffffff

Linker script and memory map

LOAD /usr/lib/gcc/msp430/4.6.3/mmpy-16/crt0ivtbl16.o
LOAD udp-server.co
LOAD obj_sky/contiki-sky-main.o
LOAD contiki-sky.a
LOAD /usr/lib/gcc/msp430/4.6.3/mmpy-16/libgcc.a
LOAD /usr/lib/gcc/msp430/4.6.3/../../../../msp430/lib/mmpy-16/libc.a
LOAD /usr/lib/gcc/msp430/4.6.3/mmpy-16/libgcc.a
LOAD /usr/lib/gcc/msp430/4.6.3/mmpy-16/libcrt0.a
                0x00000080                PROVIDE (__info_segment_size, 0x80)
                0x00001000                PROVIDE (__infob, 0x1000)
                0x00001080                PROVIDE (__infoa, 0x1080)
                0x00000000                __IE1 = 0x0
                0x00000002                __IFG1 = 0x2
                0x00000004                __ME1 = 0x4
                0x00000001                __IE2 = 0x1
                0x00000003                __IFG2 = 0x3
                0x00000005                __ME2 = 0x5
                0x00000120                __WDTCTL = 0x120
                0x00000130                __MPY = 0x130
                0x00000132                __MPYS = 0x132
                0x00000134                __MAC = 0x134
                0x00000136                __MACS = 0x136
                0x00000138                __OP2 = 0x138
                0x0000013a                __RESLO = 0x13a
                0x0000013c                __RESHI = 0x13c
                0x0000013e                __SUMEXT = 0x13e
                0x00000020                __P1IN = 0x20
                0x00000021                __P1OUT = 0x21
                0x00000022                __P1DIR = 0x22
                0x00000023                __P1IFG = 0x23
                0x00000024                __P1IES = 0x24
                0x00000025                __P1IE = 0x25
                0x00000026                __P1SEL = 0x26
                0x00000028                __P2IN = 0x28
                0x00000029                __P2OUT = 0x29
                0x0000002a                __P2DIR = 0x2a
                0x0000002b                __P2IFG = 0x2b
                0x0000002c                __P2IES = 0x2c
                0x0000002d                __P2IE = 0x2d
                0x0000002e                __P2SEL = 0x2e
                0x00000018                __P3IN = 0x18
                0x00000019                __P3OUT = 0x19
                0x0000001a                __P3DIR = 0x1a
                0x0000001b                __P3SEL = 0x1b
                0x0000001c                __P4IN = 0x1c
                0x0000001d                __P4OUT = 0x1d
                0x0000001e                __P4DIR = 0x1e
                0x0000001f                __P4SEL = 0x1f
                0x00000030                __P5IN = 0x30
                0x00000031                __P5OUT = 0x31
                0x00000032                __P5DIR = 0x32
                0x00000033                __P5SEL = 0x33
                0x00000034                __P6IN = 0x34
                0x00000035                __P6OUT = 0x35
                0x00000036                __P6DIR = 0x36
                0x00000037                __P6SEL = 0x37
                0x00000070                __U0CTL = 0x70
                0x00000071                __U0TCTL = 0x71
                0x00000072                __U0RCTL = 0x72
                0x00000073                __U0MCTL = 0x73
                0x00000074                __U0BR0 = 0x74
                0x00000075                __U0BR1 = 0x75
                0x00000076                __U0RXBUF = 0x76
                0x00000077                __U0TXBUF = 0x77
                0x00000078                __U1CTL = 0x78
                0x00000079                __U1TCTL = 0x79
                0x0000007a                __U1RCTL = 0x7a
                0x0000007b                __U1MCTL = 0x7b
                0x0000007c                __U1BR0 = 0x7c
                0x0000007d                __U1BR1 = 0x7d
                0x0000007e                __U1RXBUF = 0x7e
                0x0000007f                __U1TXBUF = 0x7f
                0x00000050                __I2CIE = 0x50
                0x00000051                __I2CIFG = 0x51
                0x00000052                __I2CNDAT = 0x52
                0x00000071                __I2CTCTL = 0x71
                0x00000072                __I2CDCTL = 0x72
                0x00000073                __I2CPSC = 0x73
                0x00000074                __I2CSCLH = 0x74
                0x00000075                __I2CSCLL = 0x75
                0x00000076                __I2CDRB = 0x76
                0x00000076                __I2CDRW = 0x76
                0x00000118                __I2COA = 0x118
                0x0000011a                __I2CSA = 0x11a
                0x0000011c                __I2CIV = 0x11c
                0x0000012e                __TAIV = 0x12e
                0x00000160                __TACTL = 0x160
                0x00000162                __TACCTL0 = 0x162
                0x00000164                __TACCTL1 = 0x164
                0x00000166                __TACCTL2 = 0x166
                0x00000170                __TAR = 0x170
                0x00000172                __TACCR0 = 0x172
                0x00000174                __TACCR1 = 0x174
                0x00000176                __TACCR2 = 0x176
                0x0000011e                __TBIV = 0x11e
                0x00000180                __TBCTL = 0x180
                0x00000182                __TBCCTL0 = 0x182
                0x00000184                __TBCCTL1 = 0x184
                0x00000186                __TBCCTL2 = 0x186
                0x00000188                __TBCCTL3 = 0x188
                0x0000018a                __TBCCTL4 = 0x18a
                0x0000018c                __TBCCTL5 = 0x18c
                0x0000018e                __TBCCTL6 = 0x18e
                0x00000190                __TBR = 0x190
                0x00000192                __TBCCR0 = 0x192
                0x00000194                __TBCCR1 = 0x194
                0x00000196                __TBCCR2 = 0x196
                0x00000198                __TBCCR3 = 0x198
                0x0000019a                __TBCCR4 = 0x19a
                0x0000019c                __TBCCR5 = 0x19c
                0x0000019e                __TBCCR6 = 0x19e
                0x00000056                __DCOCTL = 0x56
                0x00000057                __BCSCTL1 = 0x57
                0x00000058                __BCSCTL2 = 0x58
                0x00000055                __SVSCTL = 0x55
                0x00000128                __FCTL1 = 0x128
                0x0000012a                __FCTL2 = 0x12a
                0x0000012c                __FCTL3 = 0x12c
                0x00000059                __CACTL1 = 0x59
                0x0000005a                __CACTL2 = 0x5a
                0x0000005b                __CAPD = 0x5b
                0x000001a0                __ADC12CTL0 = 0x1a0
                0x000001a2                __ADC12CTL1 = 0x1a2
                0x000001a4                __ADC12IFG = 0x1a4
                0x000001a6                __ADC12IE = 0x1a6
                0x000001a8                __ADC12IV = 0x1a8
                0x00000140                __ADC12MEM0 = 0x140
                0x00000142                __ADC12MEM1 = 0x142
                0x00000144                __ADC12MEM2 = 0x144
                0x00000146                __ADC12MEM3 = 0x146
                0x00000148                __ADC12MEM4 = 0x148
                0x0000014a                __ADC12MEM5 = 0x14a
                0x0000014c                __ADC12MEM6 = 0x14c
                0x0000014e                __ADC12MEM7 = 0x14e
                0x00000150                __ADC12MEM8 = 0x150
                0x00000152                __ADC12MEM9 = 0x152
                0x00000154                __ADC12MEM10 = 0x154
                0x00000156                __ADC12MEM11 = 0x156
                0x00000158                __ADC12MEM12 = 0x158
                0x0000015a                __ADC12MEM13 = 0x15a
                0x0000015c                __ADC12MEM14 = 0x15c
                0x0000015e                __ADC12MEM15 = 0x15e
                0x00000080                __ADC12MCTL0 = 0x80
                0x00000081                __ADC12MCTL1 = 0x81
                0x00000082                __ADC12MCTL2 = 0x82
                0x00000083                __ADC12MCTL3 = 0x83
                0x00000084                __ADC12MCTL4 = 0x84
                0x00000085                __ADC12MCTL5 = 0x85
                0x00000086                __ADC12MCTL6 = 0x86
                0x00000087                __ADC12MCTL7 = 0x87
                0x00000088                __ADC12MCTL8 = 0x88
                0x00000089                __ADC12MCTL9 = 0x89
                0x0000008a                __ADC12MCTL10 = 0x8a
                0x0000008b                __ADC12MCTL11 = 0x8b
                0x0000008c                __ADC12MCTL12 = 0x8c
                0x0000008d                __ADC12MCTL13 = 0x8d
                0x0000008e                __ADC12MCTL14 = 0x8e
                0x0000008f                __ADC12MCTL15 = 0x8f
                0x000001c0                __DAC12_0CTL = 0x1c0
                0x000001c2                __DAC12_1CTL = 0x1c2
                0x000001c8                __DAC12_0DAT = 0x1c8
                0x000001ca                __DAC12_1DAT = 0x1ca
                0x00000122                __DMACTL0 = 0x122
                0x00000124                __DMACTL1 = 0x124
                0x000001e0                __DMA0CTL = 0x1e0
                0x000001e8                __DMA1CTL = 0x1e8
                0x000001f0                __DMA2CTL = 0x1f0
                0x000001e2                __DMA0SA = 0x1e2
                0x000001e4                __DMA0DA = 0x1e4
                0x000001e6                __DMA0SZ = 0x1e6
                0x000001ea                __DMA1SA = 0x1ea
                0x000001ec                __DMA1DA = 0x1ec
                0x000001ee                __DMA1SZ = 0x1ee
                0x000001f2                __DMA2SA = 0x1f2
                0x000001f4                __DMA2DA = 0x1f4
                0x000001f6                __DMA2SZ = 0x1f6

.hash
 *(.hash)

.dynsym
 *(.dynsym)

.dynstr
 *(.dynstr)

.gnu.version
 *(.gnu.version)

.gnu.version_d
 *(.gnu.version_d)

.gnu.version_r
 *(.gnu.version_r)

.rel.init
 *(.rel.init)

.rela.init
 *(.rela.init)

.rel.fini
 *(.rel.fini)

.rela.fini
 *(.rela.fini)

.rel.text
 *(.rel.text .rel.text.* .rel.gnu.linkonce.t.*)

.rela.text
 *(.rela.text .rela.text.* .rela.gnu.linkonce.t.*)

.rel.rodata
 *(.rel.rodata .rel.rodata.* .rel.gnu.linkonce.r.*)

.rela.rodata
 *(.rela.rodata .rela.rodata.* .rela.gnu.linkonce.r.*)

.rel.data
 *(.rel.data .rel.data.* .rel.gnu.linkonce.d.*)

.rela.data
 *(.rela.data .rela.data.* .rela.gnu.linkonce.d.*)

.rel.bss
 *(.rel.bss .rel.bss.* .rel.gnu.linkonce.b.*)

.rela.bss
 *(.rela.bss .rela.bss.* .rela.gnu.linkonce.b.*)

.rel.ctors
 *(.rel.ctors)

.rela.ctors
 *(.rela.ctors)

.rel.dtors
 *(.rel.dtors)

.rela.dtors
 *(.rela.dtors)

.rel.got
 *(.rel.got)

.rela.got
 *(.rela.got)

.rel.plt
 *(.rel.plt)

.rela.plt
 *(.rela.plt)

.text           0x00004000    0x1020c
                0x00004000                . = ALIGN (0x2)
 *(.init .init.*)
 *(.init0)
 .init0         0x00004000        0x0 /usr/lib/gcc/msp430/4.6.3/mmpy-16/libcrt0.a(_reset_vector__.o)
                0x00004000                _reset_vector__
 *(.init1)
 .init1         0x00004000        0xc /usr/lib/gcc/msp430/4.6.3/mmpy-16/libcrt0.a(__watchdog_support.o)
                0x00004000                __watchdog_support
 *(.init2)
 .init2         0x0000400c        0x4 /usr/lib/gcc/msp430/4.6.3/mmpy-16/libcrt0.a(__init_stack.o)
                0x0000400c                __init_stack
 *(.init3)
 .init3         0x00004010        0x0 /usr/lib/gcc/msp430/4.6.3/mmpy-16/libcrt0.a(__low_level_init.o)
                0x00004010                __low_level_init
 *(.init4)
 .init4         0x00004010       0x18 /usr/lib/gcc/msp430/4.6.3/mmpy-16/libcrt0.a(_copy_data.o)
                0x00004010                __do_copy_data
 .init4         0x00004028       0x16 /usr/lib/gcc/msp430/4.6.3/mmpy-16/libcrt0.a(_clear_bss.o)
                0x00004028                __do_clear_bss
 *(.init5)
 *(.init6)
 *(.init7)
 *(.init8)
 *(.init9)
 .init9         0x0000403e      0x340 obj_sky/contiki-sky-main.o
                0x0000403e                main
 *(.fini9)
 .fini9         0x0000437e        0x0 /usr/lib/gcc/msp430/4.6.3/mmpy-16/libcrt0.a(__stop_progExec__.o)
                0x0000437e                __stop_progExec__
 *(.fini8)
 *(.fini7)
 *(.fini6)
 *(.fini5)
 *(.fini4)
 *(.fini3)
 *(.fini2)
 *(.fini1)
 *(.fini0)
 .fini0         0x0000437e        0x6 /usr/lib/gcc/msp430/4.6.3/mmpy-16/libcrt0.a(_endless_loop__.o)
                0x0000437e                _endless_loop__
 *(.fini .fini.*)
                0x00004384                . = ALIGN (0x2)
                0x00004384                __ctors_start = .
 *(.ctors)
                0x00004384                __ctors_end = .
                0x00004384                __dtors_start = .
 *(.dtors)
                0x00004384                __dtors_end = .
                0x00004384                . = ALIGN (0x2)
 *(.text .text.* .gnu.linkonce.t.*)
 .text          0x00004384        0x4 /usr/lib/gcc/msp430/4.6.3/mmpy-16/crt0ivtbl16.o
                0x00004384                __isr_14
                0x00004384                __isr_11
                0x00004384                __isr_2
                0x00004384                __isr_7
                0x00004384                __isr_0
                0x00004384                __isr_8
                0x00004384                __isr_3
                0x00004384                __isr_12
                0x00004384                __isr_13
                0x00004384                __isr_9
 .text.process_thread_udp_server_process
                0x00004388      0x246 udp-server.co
 .text.init_platform
                0x000045ce        0xc contiki-sky.a(contiki-sky-pla)
                0x000045ce                init_platform
 .text.status   0x000045da       0x16 contiki-sky.a(button-sensor.o)
 .text.configure
                0x000045f0       0x52 contiki-sky.a(button-sensor.o)
 .text.value    0x00004642       0x22 contiki-sky.a(button-sensor.o)
 .text.irq_p2   0x00004664       0x8a contiki-sky.a(button-sensor.o)
                0x00004664                irq_p2
                0x00004664                __isr_1
 .text.owreadb  0x000046ee       0x52 contiki-sky.a(ds2411.o)
 .text.ds2411_init
                0x00004740      0x122 contiki-sky.a(ds2411.o)
                0x00004740                ds2411_init
 .text.write_enable
                0x00004862       0x2a contiki-sky.a(xmem.o)
 .text.wait_ready
                0x0000488c       0x50 contiki-sky.a(xmem.o)
 .text.xmem_init
                0x000048dc       0x3e contiki-sky.a(xmem.o)
                0x000048dc                xmem_init
 .text.xmem_pread
                0x0000491a       0xea contiki-sky.a(xmem.o)
                0x0000491a                xmem_pread
 .text.xmem_pwrite
                0x00004a04      0x150 contiki-sky.a(xmem.o)
                0x00004a04                xmem_pwrite
 .text.xmem_erase
                0x00004b54       0xae contiki-sky.a(xmem.o)
                0x00004b54                xmem_erase
 .text.node_id_restore
                0x00004c02       0x38 contiki-sky.a(node-id.o)
                0x00004c02                node_id_restore
 .text.node_id_burn
                0x00004c3a       0x36 contiki-sky.a(node-id.o)
                0x00004c3a                node_id_burn
 .text.process_thread_sensors_process
                0x00004c70       0xbe contiki-sky.a(sensors.o)
 .text.sensors_changed
                0x00004d2e       0x2a contiki-sky.a(sensors.o)
                0x00004d2e                sensors_changed
 .text.get_object
                0x00004d58        0x4 contiki-sky.a(cc2420.o)
 .text.set_object
                0x00004d5c        0x4 contiki-sky.a(cc2420.o)
 .text.strobe   0x00004d60       0x20 contiki-sky.a(cc2420.o)
 .text.getreg   0x00004d80       0x54 contiki-sky.a(cc2420.o)
 .text.setreg   0x00004dd4       0x52 contiki-sky.a(cc2420.o)
 .text.write_ram
                0x00004e26       0x80 contiki-sky.a(cc2420.o)
 .text.write_fifo_buf
                0x00004ea6       0x40 contiki-sky.a(cc2420.o)
 .text.get_status
                0x00004ee6       0x24 contiki-sky.a(cc2420.o)
 .text.set_txpower
                0x00004f0a       0x26 contiki-sky.a(cc2420.o)
 .text.cc2420_receiving_packet
                0x00004f30        0xe contiki-sky.a(cc2420.o)
 .text.pending_packet
                0x00004f3e        0x8 contiki-sky.a(cc2420.o)
 .text.on       0x00004f46       0x26 contiki-sky.a(cc2420.o)
 .text.wait_for_transmission
                0x00004f6c       0x22 contiki-sky.a(cc2420.o)
 .text.wait_for_status
                0x00004f8e       0x2a contiki-sky.a(cc2420.o)
 .text.getrxdata
                0x00004fb8       0x56 contiki-sky.a(cc2420.o)
 .text.flushrx  0x0000500e       0x1a contiki-sky.a(cc2420.o)
 .text.off      0x00005028       0x62 contiki-sky.a(cc2420.o)
 .text.RELEASE_LOCK
                0x0000508a       0x28 contiki-sky.a(cc2420.o)
 .text.set_key  0x000050b2       0x18 contiki-sky.a(cc2420.o)
 .text.set_frame_filtering
                0x000050ca       0x30 contiki-sky.a(cc2420.o)
 .text.set_auto_ack
                0x000050fa       0x30 contiki-sky.a(cc2420.o)
 .text.set_poll_mode
                0x0000512a       0x36 contiki-sky.a(cc2420.o)
 .text.cc2420_prepare
                0x00005160       0x3c contiki-sky.a(cc2420.o)
 .text.cc2420_on
                0x0000519c       0x22 contiki-sky.a(cc2420.o)
                0x0000519c                cc2420_on
 .text.cc2420_off
                0x000051be       0x30 contiki-sky.a(cc2420.o)
                0x000051be                cc2420_off
 .text.cc2420_cca
                0x000051ee       0x5e contiki-sky.a(cc2420.o)
 .text.cc2420_read
                0x0000524c       0xc0 contiki-sky.a(cc2420.o)
 .text.process_thread_cc2420_process
                0x0000530c       0x58 contiki-sky.a(cc2420.o)
 .text.encrypt  0x00005364       0x8e contiki-sky.a(cc2420.o)
 .text.cc2420_get_channel
                0x000053f2        0x6 contiki-sky.a(cc2420.o)
                0x000053f2                cc2420_get_channel
 .text.cc2420_set_channel
                0x000053f8       0x3c contiki-sky.a(cc2420.o)
                0x000053f8                cc2420_set_channel
 .text.cc2420_set_pan_addr
                0x00005434       0x4c contiki-sky.a(cc2420.o)
                0x00005434                cc2420_set_pan_addr
 .text.cc2420_interrupt
                0x00005480       0x18 contiki-sky.a(cc2420.o)
                0x00005480                cc2420_interrupt
 .text.cc2420_set_txpower
                0x00005498        0xe contiki-sky.a(cc2420.o)
                0x00005498                cc2420_set_txpower
 .text.cc2420_get_txpower
                0x000054a6       0x1e contiki-sky.a(cc2420.o)
                0x000054a6                cc2420_get_txpower
 .text.cc2420_transmit
                0x000054c4      0x114 contiki-sky.a(cc2420.o)
 .text.cc2420_send
                0x000055d8       0x12 contiki-sky.a(cc2420.o)
 .text.cc2420_rssi
                0x000055ea       0x4c contiki-sky.a(cc2420.o)
                0x000055ea                cc2420_rssi
 .text.get_value
                0x00005636      0x108 contiki-sky.a(cc2420.o)
 .text.cc2420_set_cca_threshold
                0x0000573e       0x16 contiki-sky.a(cc2420.o)
                0x0000573e                cc2420_set_cca_threshold
 .text.set_value
                0x00005754       0xba contiki-sky.a(cc2420.o)
 .text.cc2420_init
                0x0000580e       0xf0 contiki-sky.a(cc2420.o)
                0x0000580e                cc2420_init
 .text.cc2420_port1_interrupt
                0x000058fe       0x62 contiki-sky.a(cc2420-arch.o)
                0x000058fe                __isr_4
                0x000058fe                cc2420_port1_interrupt
 .text.cc2420_arch_init
                0x00005960       0x1a contiki-sky.a(cc2420-arch.o)
                0x00005960                cc2420_arch_init
 .text.uart1_active
                0x0000597a       0x1a contiki-sky.a(uart1.o)
                0x0000597a                uart1_active
 .text.uart1_writeb
                0x00005994       0x1a contiki-sky.a(uart1.o)
                0x00005994                uart1_writeb
 .text.uart1_init
                0x000059ae       0xf6 contiki-sky.a(uart1.o)
                0x000059ae                uart1_init
 .text.putchar  0x00005aa4       0x10 contiki-sky.a(uart1-putchar.o)
                0x00005aa4                putchar
 .text.msp430_init_dco
                0x00005ab4       0x84 contiki-sky.a(msp430.o)
                0x00005ab4                msp430_init_dco
 .text.msp430_add_lpm_req
                0x00005b38        0xc contiki-sky.a(msp430.o)
                0x00005b38                msp430_add_lpm_req
 .text.msp430_cpu_init
                0x00005b44       0x2a contiki-sky.a(msp430.o)
                0x00005b44                msp430_cpu_init
 .text.splhigh_
                0x00005b6e        0x8 contiki-sky.a(msp430.o)
                0x00005b6e                splhigh_
 .text.msp430_sync_dco
                0x00005b76       0x68 contiki-sky.a(msp430.o)
                0x00005b76                msp430_sync_dco
 .text.timera1  0x00005bde      0x11e contiki-sky.a(clock.o)
                0x00005bde                __isr_5
                0x00005bde                timera1
 .text.clock_time
                0x00005cfc       0x1a contiki-sky.a(clock.o)
                0x00005cfc                clock_time
 .text.clock_init
                0x00005d16       0x28 contiki-sky.a(clock.o)
                0x00005d16                clock_init
 .text.clock_delay
                0x00005d3e        0xc contiki-sky.a(clock.o)
                0x00005d3e                clock_delay
 .text.clock_wait
                0x00005d4a       0x34 contiki-sky.a(clock.o)
                0x00005d4a                clock_wait
 .text.clock_seconds
                0x00005d7e       0x1a contiki-sky.a(clock.o)
                0x00005d7e                clock_seconds
 .text.show_leds
                0x00005d98       0xf6 contiki-sky.a(leds.o)
 .text.leds_init
                0x00005e8e        0xa contiki-sky.a(leds.o)
                0x00005e8e                leds_init
 .text.leds_on  0x00005e98        0xa contiki-sky.a(leds.o)
                0x00005e98                leds_on
 .text.leds_off
                0x00005ea2        0xe contiki-sky.a(leds.o)
                0x00005ea2                leds_off
 .text.leds_toggle
                0x00005eb0        0xa contiki-sky.a(leds.o)
                0x00005eb0                leds_toggle
 .text.leds_arch_init
                0x00005eba        0xe contiki-sky.a(leds-arch.o)
                0x00005eba                leds_arch_init
 .text.leds_arch_set
                0x00005ec8       0x3a contiki-sky.a(leds-arch.o)
                0x00005ec8                leds_arch_set
 .text.watchdog_interrupt
                0x00005f02        0x6 contiki-sky.a(watchdog.o)
                0x00005f02                __isr_10
                0x00005f02                watchdog_interrupt
 .text.watchdog_start
                0x00005f08       0x14 contiki-sky.a(watchdog.o)
                0x00005f08                watchdog_start
 .text.watchdog_periodic
                0x00005f1c       0x12 contiki-sky.a(watchdog.o)
                0x00005f1c                watchdog_periodic
 .text.watchdog_stop
                0x00005f2e       0x16 contiki-sky.a(watchdog.o)
                0x00005f2e                watchdog_stop
 .text.watchdog_init
                0x00005f44       0x14 contiki-sky.a(watchdog.o)
                0x00005f44                watchdog_init
 .text.watchdog_reboot
                0x00005f58        0x6 contiki-sky.a(watchdog.o)
                0x00005f58                watchdog_reboot
 .text.rtimer_arch_init
                0x00005f5e        0xe contiki-sky.a(rtimer-arch.o)
                0x00005f5e                rtimer_arch_init
 .text.rtimer_arch_now
                0x00005f6c        0xe contiki-sky.a(rtimer-arch.o)
                0x00005f6c                rtimer_arch_now
 .text.timera0  0x00005f7a       0x70 contiki-sky.a(rtimer-arch.o)
                0x00005f7a                __isr_6
                0x00005f7a                timera0
 .text.rtimer_arch_schedule
                0x00005fea        0x6 contiki-sky.a(rtimer-arch.o)
                0x00005fea                rtimer_arch_schedule
 .text.autostart_start
                0x00005ff0       0x16 contiki-sky.a(autostart.o)
                0x00005ff0                autostart_start
 .text.process_thread_ctimer_process
                0x00006006       0xa4 contiki-sky.a(ctimer.o)
 .text.ctimer_init
                0x000060aa       0x18 contiki-sky.a(ctimer.o)
                0x000060aa                ctimer_init
 .text.ctimer_set_with_process
                0x000060c2       0x4e contiki-sky.a(ctimer.o)
                0x000060c2                ctimer_set_with_process
 .text.ctimer_set
                0x00006110       0x10 contiki-sky.a(ctimer.o)
                0x00006110                ctimer_set
 .text.ctimer_reset
                0x00006120       0x30 contiki-sky.a(ctimer.o)
                0x00006120                ctimer_reset
 .text.ctimer_restart
                0x00006150       0x30 contiki-sky.a(ctimer.o)
                0x00006150                ctimer_restart
 .text.ctimer_stop
                0x00006180       0x28 contiki-sky.a(ctimer.o)
                0x00006180                ctimer_stop
 .text.energest_init
                0x000061a8       0x28 contiki-sky.a(energest.o)
                0x000061a8                energest_init
 .text.energest_type_time
                0x000061d0       0x46 contiki-sky.a(energest.o)
                0x000061d0                energest_type_time
 .text.energest_type_set
                0x00006216        0xe contiki-sky.a(energest.o)
                0x00006216                energest_type_set
 .text.energest_flush
                0x00006224       0x48 contiki-sky.a(energest.o)
                0x00006224                energest_flush
 .text.update_time
                0x0000626c       0x78 contiki-sky.a(etimer.o)
 .text.etimer_request_poll
                0x000062e4        0xa contiki-sky.a(etimer.o)
                0x000062e4                etimer_request_poll
 .text.process_thread_etimer_process
                0x000062ee       0xc8 contiki-sky.a(etimer.o)
 .text.add_timer
                0x000063b6       0x40 contiki-sky.a(etimer.o)
 .text.etimer_set
                0x000063f6       0x12 contiki-sky.a(etimer.o)
                0x000063f6                etimer_set
 .text.etimer_reset
                0x00006408       0x12 contiki-sky.a(etimer.o)
                0x00006408                etimer_reset
 .text.etimer_restart
                0x0000641a       0x12 contiki-sky.a(etimer.o)
                0x0000641a                etimer_restart
 .text.etimer_expired
                0x0000642c        0xe contiki-sky.a(etimer.o)
                0x0000642c                etimer_expired
 .text.etimer_expiration_time
                0x0000643a       0x14 contiki-sky.a(etimer.o)
                0x0000643a                etimer_expiration_time
 .text.etimer_pending
                0x0000644e        0xc contiki-sky.a(etimer.o)
                0x0000644e                etimer_pending
 .text.etimer_next_expiration_time
                0x0000645a       0x16 contiki-sky.a(etimer.o)
                0x0000645a                etimer_next_expiration_time
 .text.etimer_stop
                0x00006470       0x3c contiki-sky.a(etimer.o)
                0x00006470                etimer_stop
 .text.call_process
                0x000064ac       0x4a contiki-sky.a(process.o)
 .text.exit_process
                0x000064f6       0x96 contiki-sky.a(process.o)
 .text.do_poll  0x0000658c       0x30 contiki-sky.a(process.o)
 .text.process_alloc_event
                0x000065bc        0xe contiki-sky.a(process.o)
                0x000065bc                process_alloc_event
 .text.process_exit
                0x000065ca        0xa contiki-sky.a(process.o)
                0x000065ca                process_exit
 .text.process_init
                0x000065d4       0x1c contiki-sky.a(process.o)
                0x000065d4                process_init
 .text.process_run
                0x000065f0       0x92 contiki-sky.a(process.o)
                0x000065f0                process_run
 .text.process_nevents
                0x00006682        0xe contiki-sky.a(process.o)
                0x00006682                process_nevents
 .text.process_post
                0x00006690       0x4e contiki-sky.a(process.o)
                0x00006690                process_post
 .text.process_post_synch
                0x000066de       0x12 contiki-sky.a(process.o)
                0x000066de                process_post_synch
 .text.process_start
                0x000066f0       0x32 contiki-sky.a(process.o)
                0x000066f0                process_start
 .text.process_poll
                0x00006722       0x18 contiki-sky.a(process.o)
                0x00006722                process_poll
 .text.process_is_running
                0x0000673a        0xe contiki-sky.a(process.o)
                0x0000673a                process_is_running
 .text.rtimer_init
                0x00006748        0x6 contiki-sky.a(rtimer.o)
                0x00006748                rtimer_init
 .text.rtimer_run_next
                0x0000674e       0x26 contiki-sky.a(rtimer.o)
                0x0000674e                rtimer_run_next
 .text.timer_set
                0x00006774       0x1c contiki-sky.a(timer.o)
                0x00006774                timer_set
 .text.timer_reset
                0x00006790        0xe contiki-sky.a(timer.o)
                0x00006790                timer_reset
 .text.timer_restart
                0x0000679e       0x14 contiki-sky.a(timer.o)
                0x0000679e                timer_restart
 .text.timer_expired
                0x000067b2       0x2a contiki-sky.a(timer.o)
                0x000067b2                timer_expired
 .text.list_init
                0x000067dc        0x6 contiki-sky.a(list.o)
                0x000067dc                list_init
 .text.list_head
                0x000067e2        0x4 contiki-sky.a(list.o)
                0x000067e2                list_head
 .text.list_tail
                0x000067e6       0x12 contiki-sky.a(list.o)
                0x000067e6                list_tail
 .text.list_remove
                0x000067f8       0x34 contiki-sky.a(list.o)
                0x000067f8                list_remove
 .text.list_push
                0x0000682c       0x1a contiki-sky.a(list.o)
                0x0000682c                list_push
 .text.list_add
                0x00006846       0x2a contiki-sky.a(list.o)
                0x00006846                list_add
 .text.list_length
                0x00006870       0x10 contiki-sky.a(list.o)
                0x00006870                list_length
 .text.list_insert
                0x00006880       0x16 contiki-sky.a(list.o)
                0x00006880                list_insert
 .text.list_item_next
                0x00006896        0xc contiki-sky.a(list.o)
                0x00006896                list_item_next
 .text.random_init
                0x000068a2        0x6 contiki-sky.a(random.o)
                0x000068a2                random_init
 .text.random_rand
                0x000068a8        0x6 contiki-sky.a(random.o)
                0x000068a8                random_rand
 .text.clear_fragments
                0x000068ae       0x42 contiki-sky.a(sicslowpan.o)
 .text.set_packet_attrs
                0x000068f0       0x44 contiki-sky.a(sicslowpan.o)
 .text.addr_context_lookup_by_number
                0x00006934       0x36 contiki-sky.a(sicslowpan.o)
 .text.compress_addr_64
                0x0000696a       0xae contiki-sky.a(sicslowpan.o)
 .text.store_fragment
                0x00006a18       0xc8 contiki-sky.a(sicslowpan.o)
 .text.add_fragment
                0x00006ae0      0x1ee contiki-sky.a(sicslowpan.o)
 .text.uncompress_addr
                0x00006cce       0xb4 contiki-sky.a(sicslowpan.o)
 .text.input    0x00006d82      0x6f0 contiki-sky.a(sicslowpan.o)
 .text.sicslowpan_init
                0x00007472       0x24 contiki-sky.a(sicslowpan.o)
                0x00007472                sicslowpan_init
 .text.addr_context_lookup_by_prefix
                0x00007496       0x4c contiki-sky.a(sicslowpan.o)
 .text.send_packet
                0x000074e2       0x1a contiki-sky.a(sicslowpan.o)
 .text.output   0x000074fc      0x6d0 contiki-sky.a(sicslowpan.o)
 .text.packet_sent
                0x00007bcc       0x22 contiki-sky.a(sicslowpan.o)
 .text.rime_sniffer_add
                0x00007bee        0x6 contiki-sky.a(sicslowpan.o)
                0x00007bee                rime_sniffer_add
 .text.rime_sniffer_remove
                0x00007bf4        0x6 contiki-sky.a(sicslowpan.o)
                0x00007bf4                rime_sniffer_remove
 .text.chksum   0x00007bfa       0x32 contiki-sky.a(uip6.o)
 .text.upper_layer_chksum
                0x00007c2c       0x56 contiki-sky.a(uip6.o)
 .text.ext_hdr_options_process
                0x00007c82       0xda contiki-sky.a(uip6.o)
 .text.uip_add32
                0x00007d5c       0x68 contiki-sky.a(uip6.o)
                0x00007d5c                uip_add32
 .text.unlikely.uip_add_rcv_nxt
                0x00007dc4       0x2e contiki-sky.a(uip6.o)
 .text.uip_icmp6chksum
                0x00007df2        0xa contiki-sky.a(uip6.o)
                0x00007df2                uip_icmp6chksum
 .text.uip_tcpchksum
                0x00007dfc        0xa contiki-sky.a(uip6.o)
                0x00007dfc                uip_tcpchksum
 .text.uip_udpchksum
                0x00007e06        0xa contiki-sky.a(uip6.o)
                0x00007e06                uip_udpchksum
 .text.uip_init
                0x00007e10       0x56 contiki-sky.a(uip6.o)
                0x00007e10                uip_init
 .text.remove_ext_hdr
                0x00007e66       0x56 contiki-sky.a(uip6.o)
                0x00007e66                remove_ext_hdr
 .text.uip_udp_new
                0x00007ebc       0xac contiki-sky.a(uip6.o)
                0x00007ebc                uip_udp_new
 .text.uip_unlisten
                0x00007f68       0x1e contiki-sky.a(uip6.o)
                0x00007f68                uip_unlisten
 .text.uip_process
                0x00007f86      0xe18 contiki-sky.a(uip6.o)
                0x00007f86                uip_process
 .text.uip_htonl
                0x00008d9e       0x2e contiki-sky.a(uip6.o)
                0x00008d9e                uip_htonl
 .text.uip_ds6_list_loop
                0x00008dcc       0x86 contiki-sky.a(uip-ds6.o)
                0x00008dcc                uip_ds6_list_loop
 .text.uip_ds6_prefix_add
                0x00008e52       0x80 contiki-sky.a(uip-ds6.o)
                0x00008e52                uip_ds6_prefix_add
 .text.uip_ds6_is_addr_onlink
                0x00008ed2       0x54 contiki-sky.a(uip-ds6.o)
                0x00008ed2                uip_ds6_is_addr_onlink
 .text.uip_ds6_addr_lookup
                0x00008f26       0x2a contiki-sky.a(uip-ds6.o)
                0x00008f26                uip_ds6_addr_lookup
 .text.uip_ds6_get_link_local
                0x00008f50       0x3e contiki-sky.a(uip-ds6.o)
                0x00008f50                uip_ds6_get_link_local
 .text.uip_ds6_maddr_add
                0x00008f8e       0x4c contiki-sky.a(uip-ds6.o)
                0x00008f8e                uip_ds6_maddr_add
 .text.uip_ds6_addr_add
                0x00008fda       0xc4 contiki-sky.a(uip-ds6.o)
                0x00008fda                uip_ds6_addr_add
 .text.uip_ds6_maddr_lookup
                0x0000909e       0x2a contiki-sky.a(uip-ds6.o)
                0x0000909e                uip_ds6_maddr_lookup
 .text.uip_ds6_addr_rm
                0x000090c8       0x54 contiki-sky.a(uip-ds6.o)
                0x000090c8                uip_ds6_addr_rm
 .text.uip_ds6_periodic
                0x0000911c       0x46 contiki-sky.a(uip-ds6.o)
                0x0000911c                uip_ds6_periodic
 .text.uip_ds6_set_addr_iid
                0x00009162       0x14 contiki-sky.a(uip-ds6.o)
                0x00009162                uip_ds6_set_addr_iid
 .text.get_match_length
                0x00009176       0x3e contiki-sky.a(uip-ds6.o)
                0x00009176                get_match_length
 .text.uip_ds6_select_src
                0x000091b4       0xaa contiki-sky.a(uip-ds6.o)
                0x000091b4                uip_ds6_select_src
 .text.uip_ds6_compute_reachable_time
                0x0000925e       0x3e contiki-sky.a(uip-ds6.o)
                0x0000925e                uip_ds6_compute_reachable_time
 .text.uip_ds6_init
                0x0000929c      0x154 contiki-sky.a(uip-ds6.o)
                0x0000929c                uip_ds6_init
 .text.uip_ds6_nbr_rm
                0x000093f0       0x1e contiki-sky.a(uip-ds6-nbr.o)
                0x000093f0                uip_ds6_nbr_rm
 .text.uip_ds6_neighbors_init
                0x0000940e       0x12 contiki-sky.a(uip-ds6-nbr.o)
                0x0000940e                uip_ds6_neighbors_init
 .text.uip_ds6_nbr_add
                0x00009420       0x3e contiki-sky.a(uip-ds6-nbr.o)
                0x00009420                uip_ds6_nbr_add
 .text.uip_ds6_nbr_get_ll
                0x0000945e        0xc contiki-sky.a(uip-ds6-nbr.o)
                0x0000945e                uip_ds6_nbr_get_ll
 .text.uip_ds6_nbr_lookup
                0x0000946a       0x42 contiki-sky.a(uip-ds6-nbr.o)
                0x0000946a                uip_ds6_nbr_lookup
 .text.uip_ds6_nbr_ll_lookup
                0x000094ac        0xc contiki-sky.a(uip-ds6-nbr.o)
                0x000094ac                uip_ds6_nbr_ll_lookup
 .text.uip_ds6_nbr_ipaddr_from_lladdr
                0x000094b8        0x6 contiki-sky.a(uip-ds6-nbr.o)
                0x000094b8                uip_ds6_nbr_ipaddr_from_lladdr
 .text.uip_ds6_nbr_lladdr_from_ipaddr
                0x000094be       0x12 contiki-sky.a(uip-ds6-nbr.o)
                0x000094be                uip_ds6_nbr_lladdr_from_ipaddr
 .text.uip_ds6_link_neighbor_callback
                0x000094d0       0x36 contiki-sky.a(uip-ds6-nbr.o)
                0x000094d0                uip_ds6_link_neighbor_callback
 .text.call_route_callback
                0x00009506       0x4c contiki-sky.a(uip-ds6-route.o)
 .text.uip_ds6_route_init
                0x00009552       0x36 contiki-sky.a(uip-ds6-route.o)
                0x00009552                uip_ds6_route_init
 .text.uip_ds6_route_nexthop
                0x00009588       0x1a contiki-sky.a(uip-ds6-route.o)
                0x00009588                uip_ds6_route_nexthop
 .text.uip_ds6_route_head
                0x000095a2        0xa contiki-sky.a(uip-ds6-route.o)
                0x000095a2                uip_ds6_route_head
 .text.uip_ds6_route_next
                0x000095ac        0xe contiki-sky.a(uip-ds6-route.o)
                0x000095ac                uip_ds6_route_next
 .text.assert_nbr_routes_list_sane
                0x000095ba       0x48 contiki-sky.a(uip-ds6-route.o)
 .text.uip_ds6_route_is_nexthop
                0x00009602       0x1e contiki-sky.a(uip-ds6-route.o)
                0x00009602                uip_ds6_route_is_nexthop
 .text.uip_ds6_route_lookup
                0x00009620       0x8c contiki-sky.a(uip-ds6-route.o)
                0x00009620                uip_ds6_route_lookup
 .text.uip_ds6_route_rm
                0x000096ac       0xc6 contiki-sky.a(uip-ds6-route.o)
                0x000096ac                uip_ds6_route_rm
 .text.rm_routelist
                0x00009772       0x3c contiki-sky.a(uip-ds6-route.o)
 .text.rm_routelist_callback
                0x000097ae        0x6 contiki-sky.a(uip-ds6-route.o)
 .text.uip_ds6_route_add
                0x000097b4      0x128 contiki-sky.a(uip-ds6-route.o)
                0x000097b4                uip_ds6_route_add
 .text.uip_ds6_defrt_rm
                0x000098dc       0x60 contiki-sky.a(uip-ds6-route.o)
                0x000098dc                uip_ds6_defrt_rm
 .text.uip_ds6_defrt_lookup
                0x0000993c       0x36 contiki-sky.a(uip-ds6-route.o)
                0x0000993c                uip_ds6_defrt_lookup
 .text.uip_ds6_defrt_add
                0x00009972       0x8e contiki-sky.a(uip-ds6-route.o)
                0x00009972                uip_ds6_defrt_add
 .text.uip_ds6_defrt_choose
                0x00009a00       0x3a contiki-sky.a(uip-ds6-route.o)
                0x00009a00                uip_ds6_defrt_choose
 .text.uip_ds6_defrt_periodic
                0x00009a3a       0x38 contiki-sky.a(uip-ds6-route.o)
                0x00009a3a                uip_ds6_defrt_periodic
 .text.echo_reply_input
                0x00009a72       0xb2 contiki-sky.a(uip-icmp6.o)
 .text.echo_request_input
                0x00009b24       0xca contiki-sky.a(uip-icmp6.o)
 .text.uip_icmp6_input
                0x00009bee       0x44 contiki-sky.a(uip-icmp6.o)
                0x00009bee                uip_icmp6_input
 .text.uip_icmp6_register_input_handler
                0x00009c32        0xc contiki-sky.a(uip-icmp6.o)
                0x00009c32                uip_icmp6_register_input_handler
 .text.uip_icmp6_error_output
                0x00009c3e      0x17c contiki-sky.a(uip-icmp6.o)
                0x00009c3e                uip_icmp6_error_output
 .text.uip_icmp6_send
                0x00009dba       0x96 contiki-sky.a(uip-icmp6.o)
                0x00009dba                uip_icmp6_send
 .text.uip_icmp6_init
                0x00009e50       0x12 contiki-sky.a(uip-icmp6.o)
                0x00009e50                uip_icmp6_init
 .text.ns_input
                0x00009e62      0x266 contiki-sky.a(uip-nd6.o)
 .text.uip_nd6_init
                0x0000a0c8        0xa contiki-sky.a(uip-nd6.o)
                0x0000a0c8                uip_nd6_init
 .text.start_periodic_tcp_timer
                0x0000a0d2       0x16 contiki-sky.a(tcpip.o)
 .text.tcpip_output
                0x0000a0e8       0x10 contiki-sky.a(tcpip.o)
                0x0000a0e8                tcpip_output
 .text.tcpip_set_outputfunc
                0x0000a0f8        0x6 contiki-sky.a(tcpip.o)
                0x0000a0f8                tcpip_set_outputfunc
 .text.udp_new  0x0000a0fe       0x1a contiki-sky.a(tcpip.o)
                0x0000a0fe                udp_new
 .text.tcpip_input
                0x0000a118       0x16 contiki-sky.a(tcpip.o)
                0x0000a118                tcpip_input
 .text.tcpip_ipv6_output
                0x0000a12e       0xc0 contiki-sky.a(tcpip.o)
                0x0000a12e                tcpip_ipv6_output
 .text.process_thread_tcpip_process
                0x0000a1ee      0x1b6 contiki-sky.a(tcpip.o)
 .text.tcpip_uipcall
                0x0000a3a4       0x64 contiki-sky.a(tcpip.o)
                0x0000a3a4                tcpip_uipcall
 .text.uip_debug_ipaddr_print
                0x0000a408       0xc6 contiki-sky.a(uip-debug.o)
                0x0000a408                uip_debug_ipaddr_print
 .text.rpl_get_mode
                0x0000a4ce        0x6 contiki-sky.a(rpl.o)
                0x0000a4ce                rpl_get_mode
 .text.rpl_purge_routes
                0x0000a4d4       0x94 contiki-sky.a(rpl.o)
                0x0000a4d4                rpl_purge_routes
 .text.rpl_remove_routes
                0x0000a568       0x22 contiki-sky.a(rpl.o)
                0x0000a568                rpl_remove_routes
 .text.rpl_remove_routes_by_nexthop
                0x0000a58a       0x46 contiki-sky.a(rpl.o)
                0x0000a58a                rpl_remove_routes_by_nexthop
 .text.rpl_add_route
                0x0000a5d0       0x52 contiki-sky.a(rpl.o)
                0x0000a5d0                rpl_add_route
 .text.rpl_link_neighbor_callback
                0x0000a622       0x4c contiki-sky.a(rpl.o)
                0x0000a622                rpl_link_neighbor_callback
 .text.rpl_ipv6_neighbor_callback
                0x0000a66e       0x1e contiki-sky.a(rpl.o)
                0x0000a66e                rpl_ipv6_neighbor_callback
 .text.rpl_purge_dags
                0x0000a68c       0x6e contiki-sky.a(rpl.o)
                0x0000a68c                rpl_purge_dags
 .text.rpl_init
                0x0000a6fa       0x44 contiki-sky.a(rpl.o)
                0x0000a6fa                rpl_init
 .text.lollipop_greater_than
                0x0000a73e       0x44 contiki-sky.a(rpl-dag.o)
 .text.acceptable_rank
                0x0000a782       0x50 contiki-sky.a(rpl-dag.o)
 .text.find_parent_any_dag_any_instance
                0x0000a7d2       0x14 contiki-sky.a(rpl-dag.o)
 .text.rpl_set_preferred_parent
                0x0000a7e6       0x30 contiki-sky.a(rpl-dag.o)
 .text.set_ip_from_prefix
                0x0000a816       0x38 contiki-sky.a(rpl-dag.o)
 .text.check_prefix
                0x0000a84e       0x80 contiki-sky.a(rpl-dag.o)
 .text.rpl_dag_init
                0x0000a8ce        0xe contiki-sky.a(rpl-dag.o)
                0x0000a8ce                rpl_dag_init
 .text.rpl_get_parent
                0x0000a8dc        0xc contiki-sky.a(rpl-dag.o)
                0x0000a8dc                rpl_get_parent
 .text.rpl_rank_via_parent
                0x0000a8e8       0x2e contiki-sky.a(rpl-dag.o)
                0x0000a8e8                rpl_rank_via_parent
 .text.rpl_get_parent_lladdr
                0x0000a916        0xc contiki-sky.a(rpl-dag.o)
                0x0000a916                rpl_get_parent_lladdr
 .text.rpl_get_parent_ipaddr
                0x0000a922        0xa contiki-sky.a(rpl-dag.o)
                0x0000a922                rpl_get_parent_ipaddr
 .text.rpl_get_parent_link_stats
                0x0000a92c        0xa contiki-sky.a(rpl-dag.o)
                0x0000a92c                rpl_get_parent_link_stats
 .text.rpl_parent_is_fresh
                0x0000a936        0xa contiki-sky.a(rpl-dag.o)
                0x0000a936                rpl_parent_is_fresh
 .text.best_parent
                0x0000a940       0x80 contiki-sky.a(rpl-dag.o)
 .text.rpl_parent_is_reachable
                0x0000a9c0       0x46 contiki-sky.a(rpl-dag.o)
                0x0000a9c0                rpl_parent_is_reachable
 .text.rpl_set_prefix
                0x0000aa06       0x8e contiki-sky.a(rpl-dag.o)
                0x0000aa06                rpl_set_prefix
 .text.rpl_set_default_route
                0x0000aa94       0x3e contiki-sky.a(rpl-dag.o)
                0x0000aa94                rpl_set_default_route
 .text.rpl_alloc_instance
                0x0000aad2       0x34 contiki-sky.a(rpl-dag.o)
                0x0000aad2                rpl_alloc_instance
 .text.rpl_add_parent
                0x0000ab06       0x3e contiki-sky.a(rpl-dag.o)
                0x0000ab06                rpl_add_parent
 .text.rpl_find_parent
                0x0000ab44       0x18 contiki-sky.a(rpl-dag.o)
                0x0000ab44                rpl_find_parent
 .text.rpl_find_parent_any_dag
                0x0000ab5c       0x20 contiki-sky.a(rpl-dag.o)
                0x0000ab5c                rpl_find_parent_any_dag
 .text.rpl_select_parent
                0x0000ab7c       0x66 contiki-sky.a(rpl-dag.o)
                0x0000ab7c                rpl_select_parent
 .text.rpl_select_dag
                0x0000abe2      0x17e contiki-sky.a(rpl-dag.o)
                0x0000abe2                rpl_select_dag
 .text.rpl_nullify_parent
                0x0000ad60       0x60 contiki-sky.a(rpl-dag.o)
                0x0000ad60                rpl_nullify_parent
 .text.rpl_remove_parent
                0x0000adc0       0x16 contiki-sky.a(rpl-dag.o)
                0x0000adc0                rpl_remove_parent
 .text.nbr_callback
                0x0000add6        0x6 contiki-sky.a(rpl-dag.o)
 .text.remove_parents.constprop.3
                0x0000addc       0x30 contiki-sky.a(rpl-dag.o)
 .text.rpl_free_dag
                0x0000ae0c       0x44 contiki-sky.a(rpl-dag.o)
                0x0000ae0c                rpl_free_dag
 .text.rpl_move_parent
                0x0000ae50       0x68 contiki-sky.a(rpl-dag.o)
                0x0000ae50                rpl_move_parent
 .text.rpl_get_dag
                0x0000aeb8       0x86 contiki-sky.a(rpl-dag.o)
                0x0000aeb8                rpl_get_dag
 .text.rpl_get_any_dag
                0x0000af3e       0x18 contiki-sky.a(rpl-dag.o)
                0x0000af3e                rpl_get_any_dag
 .text.rpl_get_instance
                0x0000af56       0x1a contiki-sky.a(rpl-dag.o)
                0x0000af56                rpl_get_instance
 .text.rpl_alloc_dag
                0x0000af70       0x60 contiki-sky.a(rpl-dag.o)
                0x0000af70                rpl_alloc_dag
 .text.rpl_repair_root
                0x0000afd0       0x50 contiki-sky.a(rpl-dag.o)
                0x0000afd0                rpl_repair_root
 .text.rpl_find_of
                0x0000b020       0x10 contiki-sky.a(rpl-dag.o)
                0x0000b020                rpl_find_of
 .text.rpl_set_root
                0x0000b030      0x14e contiki-sky.a(rpl-dag.o)
                0x0000b030                rpl_set_root
 .text.rpl_join_instance
                0x0000b17e      0x158 contiki-sky.a(rpl-dag.o)
                0x0000b17e                rpl_join_instance
 .text.rpl_local_repair
                0x0000b2d6       0x9a contiki-sky.a(rpl-dag.o)
                0x0000b2d6                rpl_local_repair
 .text.rpl_process_parent_event
                0x0000b370       0x8e contiki-sky.a(rpl-dag.o)
                0x0000b370                rpl_process_parent_event
 .text.rpl_recalculate_ranks
                0x0000b3fe       0x46 contiki-sky.a(rpl-dag.o)
                0x0000b3fe                rpl_recalculate_ranks
 .text.rpl_add_dag
                0x0000b444      0x114 contiki-sky.a(rpl-dag.o)
                0x0000b444                rpl_add_dag
 .text.rpl_process_dio
                0x0000b558      0x332 contiki-sky.a(rpl-dag.o)
                0x0000b558                rpl_process_dio
 .text.update_hbh_header
                0x0000b88a       0xcc contiki-sky.a(rpl-ext-header.)
 .text.insert_hbh_header
                0x0000b956       0x9c contiki-sky.a(rpl-ext-header.)
 .text.rpl_verify_hbh_header
                0x0000b9f2      0x104 contiki-sky.a(rpl-ext-header.)
                0x0000b9f2                rpl_verify_hbh_header
 .text.rpl_remove_header
                0x0000baf6       0x7a contiki-sky.a(rpl-ext-header.)
                0x0000baf6                rpl_remove_header
 .text.rpl_update_header
                0x0000bb70       0x64 contiki-sky.a(rpl-ext-header.)
                0x0000bb70                rpl_update_header
 .text.prepare_for_dao_fwd
                0x0000bbd4       0x28 contiki-sky.a(rpl-icmp6.o)
 .text.get32    0x0000bbfc       0x46 contiki-sky.a(rpl-icmp6.o)
 .text.set32    0x0000bc42       0x2a contiki-sky.a(rpl-icmp6.o)
 .text.get16    0x0000bc6c        0xe contiki-sky.a(rpl-icmp6.o)
 .text.set16    0x0000bc7a       0x10 contiki-sky.a(rpl-icmp6.o)
 .text.dao_ack_input
                0x0000bc8a        0xa contiki-sky.a(rpl-icmp6.o)
 .text.dio_input
                0x0000bc94      0x2aa contiki-sky.a(rpl-icmp6.o)
 .text.rpl_icmp6_update_nbr_table
                0x0000bf3e       0x30 contiki-sky.a(rpl-icmp6.o)
                0x0000bf3e                rpl_icmp6_update_nbr_table
 .text.dao_input
                0x0000bf6e      0x29a contiki-sky.a(rpl-icmp6.o)
 .text.dis_output
                0x0000c208       0x50 contiki-sky.a(rpl-icmp6.o)
                0x0000c208                dis_output
 .text.dio_output
                0x0000c258      0x276 contiki-sky.a(rpl-icmp6.o)
                0x0000c258                dio_output
 .text.dis_input
                0x0000c4ce       0x3e contiki-sky.a(rpl-icmp6.o)
 .text.dao_output_target
                0x0000c50c      0x114 contiki-sky.a(rpl-icmp6.o)
                0x0000c50c                dao_output_target
 .text.dao_output
                0x0000c620       0xb2 contiki-sky.a(rpl-icmp6.o)
                0x0000c620                dao_output
 .text.rpl_icmp6_register_handlers
                0x0000c6d2       0x22 contiki-sky.a(rpl-icmp6.o)
                0x0000c6d2                rpl_icmp6_register_handlers
 .text.reset    0x0000c6f4        0x2 contiki-sky.a(rpl-mrhof.o)
 .text.update_metric_container
                0x0000c6f6        0x6 contiki-sky.a(rpl-mrhof.o)
 .text.parent_link_metric
                0x0000c6fc       0x10 contiki-sky.a(rpl-mrhof.o)
 .text.parent_has_usable_link
                0x0000c70c       0x14 contiki-sky.a(rpl-mrhof.o)
 .text.best_dag
                0x0000c720       0x34 contiki-sky.a(rpl-mrhof.o)
 .text.parent_path_cost
                0x0000c754       0x44 contiki-sky.a(rpl-mrhof.o)
 .text.parent_is_acceptable
                0x0000c798       0x2a contiki-sky.a(rpl-mrhof.o)
 .text.best_parent
                0x0000c7c2       0x88 contiki-sky.a(rpl-mrhof.o)
 .text.rank_via_parent
                0x0000c84a       0x56 contiki-sky.a(rpl-mrhof.o)
 .text.handle_unicast_dio_timer
                0x0000c8a0       0x1c contiki-sky.a(rpl-timers.o)
 .text.new_dio_interval
                0x0000c8bc       0x92 contiki-sky.a(rpl-timers.o)
 .text.handle_periodic_timer
                0x0000c94e       0x50 contiki-sky.a(rpl-timers.o)
 .text.set_dao_lifetime_timer.part.0
                0x0000c99e       0x66 contiki-sky.a(rpl-timers.o)
 .text.schedule_dao
                0x0000ca04       0x90 contiki-sky.a(rpl-timers.o)
 .text.handle_dio_timer
                0x0000ca94       0x88 contiki-sky.a(rpl-timers.o)
 .text.handle_dao_timer
                0x0000cb1c       0x72 contiki-sky.a(rpl-timers.o)
 .text.rpl_reset_periodic_timer
                0x0000cb8e       0x60 contiki-sky.a(rpl-timers.o)
                0x0000cb8e                rpl_reset_periodic_timer
 .text.rpl_reset_dio_timer
                0x0000cbee       0x18 contiki-sky.a(rpl-timers.o)
                0x0000cbee                rpl_reset_dio_timer
 .text.rpl_schedule_dao
                0x0000cc06        0xc contiki-sky.a(rpl-timers.o)
                0x0000cc06                rpl_schedule_dao
 .text.rpl_schedule_unicast_dio_immediately
                0x0000cc12       0x16 contiki-sky.a(rpl-timers.o)
                0x0000cc12                rpl_schedule_unicast_dio_immediately
 .text.get_probing_delay
                0x0000cc28       0x40 contiki-sky.a(rpl-timers.o)
                0x0000cc28                get_probing_delay
 .text.get_probing_target
                0x0000cc68       0xf6 contiki-sky.a(rpl-timers.o)
                0x0000cc68                get_probing_target
 .text.rpl_schedule_probing
                0x0000cd5e       0x26 contiki-sky.a(rpl-timers.o)
                0x0000cd5e                rpl_schedule_probing
 .text.handle_probing_timer
                0x0000cd84       0x3c contiki-sky.a(rpl-timers.o)
 .text.input_packet
                0x0000cdc0        0x6 contiki-sky.a(csma.o)
 .text.on       0x0000cdc6        0x6 contiki-sky.a(csma.o)
 .text.off      0x0000cdcc        0x6 contiki-sky.a(csma.o)
 .text.channel_check_interval
                0x0000cdd2       0x10 contiki-sky.a(csma.o)
 .text.transmit_packet_list
                0x0000cde2       0x24 contiki-sky.a(csma.o)
 .text.schedule_transmission
                0x0000ce06       0x96 contiki-sky.a(csma.o)
 .text.send_packet
                0x0000ce9c      0x164 contiki-sky.a(csma.o)
 .text.init     0x0000d000       0x1a contiki-sky.a(csma.o)
 .text.tx_done  0x0000d01a       0x9a contiki-sky.a(csma.o)
 .text.packet_sent
                0x0000d0b4       0xd2 contiki-sky.a(csma.o)
 .text.parse    0x0000d186       0xa6 contiki-sky.a(framer-802154.o)
 .text.create_frame.isra.0
                0x0000d22c      0x118 contiki-sky.a(framer-802154.o)
 .text.create   0x0000d344        0x8 contiki-sky.a(framer-802154.o)
 .text.hdr_length
                0x0000d34c        0x8 contiki-sky.a(framer-802154.o)
 .text.mac_call_sent_callback
                0x0000d354       0x14 contiki-sky.a(mac.o)
                0x0000d354                mac_call_sent_callback
 .text.on       0x0000d368        0x6 contiki-sky.a(nullrdc.o)
 .text.channel_check_interval
                0x0000d36e        0x4 contiki-sky.a(nullrdc.o)
 .text.init     0x0000d372        0x6 contiki-sky.a(nullrdc.o)
 .text.send_one_packet
                0x0000d378      0x116 contiki-sky.a(nullrdc.o)
 .text.send_list
                0x0000d48e       0x30 contiki-sky.a(nullrdc.o)
 .text.send_packet
                0x0000d4be        0x6 contiki-sky.a(nullrdc.o)
 .text.off      0x0000d4c4       0x10 contiki-sky.a(nullrdc.o)
 .text.packet_input
                0x0000d4d4       0x3c contiki-sky.a(nullrdc.o)
 .text.linkaddr_copy
                0x0000d510        0x8 contiki-sky.a(linkaddr.o)
                0x0000d510                linkaddr_copy
 .text.linkaddr_cmp
                0x0000d518       0x12 contiki-sky.a(linkaddr.o)
                0x0000d518                linkaddr_cmp
 .text.linkaddr_set_node_addr
                0x0000d52a        0xc contiki-sky.a(linkaddr.o)
                0x0000d52a                linkaddr_set_node_addr
 .text.periodic
                0x0000d536       0x28 contiki-sky.a(link-stats.o)
 .text.link_stats_from_lladdr
                0x0000d55e        0xc contiki-sky.a(link-stats.o)
                0x0000d55e                link_stats_from_lladdr
 .text.link_stats_is_fresh
                0x0000d56a       0x30 contiki-sky.a(link-stats.o)
                0x0000d56a                link_stats_is_fresh
 .text.link_stats_packet_sent
                0x0000d59a       0xda contiki-sky.a(link-stats.o)
                0x0000d59a                link_stats_packet_sent
 .text.link_stats_input_callback
                0x0000d674       0xbc contiki-sky.a(link-stats.o)
                0x0000d674                link_stats_input_callback
 .text.link_stats_init
                0x0000d730       0x22 contiki-sky.a(link-stats.o)
                0x0000d730                link_stats_init
 .text.index_from_key
                0x0000d752       0x48 contiki-sky.a(nbr-table.o)
 .text.item_from_key
                0x0000d79a       0x34 contiki-sky.a(nbr-table.o)
 .text.nbr_set_bit
                0x0000d7ce       0x8e contiki-sky.a(nbr-table.o)
 .text.index_from_lladdr
                0x0000d85c       0x42 contiki-sky.a(nbr-table.o)
 .text.nbr_get_bit.constprop.0
                0x0000d89e       0x62 contiki-sky.a(nbr-table.o)
 .text.remove_key
                0x0000d900       0x60 contiki-sky.a(nbr-table.o)
 .text.nbr_table_register
                0x0000d960       0x28 contiki-sky.a(nbr-table.o)
                0x0000d960                nbr_table_register
 .text.nbr_table_next
                0x0000d988       0x90 contiki-sky.a(nbr-table.o)
                0x0000d988                nbr_table_next
 .text.nbr_table_head
                0x0000da18       0x36 contiki-sky.a(nbr-table.o)
                0x0000da18                nbr_table_head
 .text.nbr_table_add_lladdr
                0x0000da4e      0x136 contiki-sky.a(nbr-table.o)
                0x0000da4e                nbr_table_add_lladdr
 .text.nbr_table_get_from_lladdr
                0x0000db84       0x48 contiki-sky.a(nbr-table.o)
                0x0000db84                nbr_table_get_from_lladdr
 .text.nbr_table_remove
                0x0000dbcc       0x32 contiki-sky.a(nbr-table.o)
                0x0000dbcc                nbr_table_remove
 .text.nbr_table_lock
                0x0000dbfe       0x10 contiki-sky.a(nbr-table.o)
                0x0000dbfe                nbr_table_lock
 .text.nbr_table_unlock
                0x0000dc0e       0x10 contiki-sky.a(nbr-table.o)
                0x0000dc0e                nbr_table_unlock
 .text.nbr_table_get_lladdr
                0x0000dc1e       0x5a contiki-sky.a(nbr-table.o)
                0x0000dc1e                nbr_table_get_lladdr
 .text.nbr_table_update_lladdr
                0x0000dc78       0x68 contiki-sky.a(nbr-table.o)
                0x0000dc78                nbr_table_update_lladdr
 .text.packetbuf_hdrreduce
                0x0000dce0       0x1a contiki-sky.a(packetbuf.o)
                0x0000dce0                packetbuf_hdrreduce
 .text.packetbuf_set_datalen
                0x0000dcfa        0x6 contiki-sky.a(packetbuf.o)
                0x0000dcfa                packetbuf_set_datalen
 .text.packetbuf_hdrptr
                0x0000dd00        0x6 contiki-sky.a(packetbuf.o)
                0x0000dd00                packetbuf_hdrptr
 .text.packetbuf_datalen
                0x0000dd06        0x6 contiki-sky.a(packetbuf.o)
                0x0000dd06                packetbuf_datalen
 .text.packetbuf_hdrlen
                0x0000dd0c        0xa contiki-sky.a(packetbuf.o)
                0x0000dd0c                packetbuf_hdrlen
 .text.packetbuf_dataptr
                0x0000dd16        0xc contiki-sky.a(packetbuf.o)
                0x0000dd16                packetbuf_dataptr
 .text.packetbuf_copyto
                0x0000dd22       0x46 contiki-sky.a(packetbuf.o)
                0x0000dd22                packetbuf_copyto
 .text.packetbuf_compact
                0x0000dd68       0x36 contiki-sky.a(packetbuf.o)
                0x0000dd68                packetbuf_compact
 .text.packetbuf_totlen
                0x0000dd9e        0xc contiki-sky.a(packetbuf.o)
                0x0000dd9e                packetbuf_totlen
 .text.packetbuf_hdralloc
                0x0000ddaa       0x3a contiki-sky.a(packetbuf.o)
                0x0000ddaa                packetbuf_hdralloc
 .text.packetbuf_attr_clear
                0x0000dde4       0x28 contiki-sky.a(packetbuf.o)
                0x0000dde4                packetbuf_attr_clear
 .text.packetbuf_clear
                0x0000de0c       0x12 contiki-sky.a(packetbuf.o)
                0x0000de0c                packetbuf_clear
 .text.packetbuf_copyfrom
                0x0000de1e       0x2e contiki-sky.a(packetbuf.o)
                0x0000de1e                packetbuf_copyfrom
 .text.packetbuf_attr_copyto
                0x0000de4c       0x22 contiki-sky.a(packetbuf.o)
                0x0000de4c                packetbuf_attr_copyto
 .text.packetbuf_attr_copyfrom
                0x0000de6e       0x24 contiki-sky.a(packetbuf.o)
                0x0000de6e                packetbuf_attr_copyfrom
 .text.packetbuf_holds_broadcast
                0x0000de92        0xe contiki-sky.a(packetbuf.o)
                0x0000de92                packetbuf_holds_broadcast
 .text.queuebuf_init
                0x0000dea0       0x12 contiki-sky.a(queuebuf.o)
                0x0000dea0                queuebuf_init
 .text.queuebuf_numfree
                0x0000deb2        0xa contiki-sky.a(queuebuf.o)
                0x0000deb2                queuebuf_numfree
 .text.queuebuf_new_from_packetbuf
                0x0000debc       0x52 contiki-sky.a(queuebuf.o)
                0x0000debc                queuebuf_new_from_packetbuf
 .text.queuebuf_update_attr_from_packetbuf
                0x0000df0e       0x12 contiki-sky.a(queuebuf.o)
                0x0000df0e                queuebuf_update_attr_from_packetbuf
 .text.queuebuf_free
                0x0000df20       0x2a contiki-sky.a(queuebuf.o)
                0x0000df20                queuebuf_free
 .text.queuebuf_to_packetbuf
                0x0000df4a       0x32 contiki-sky.a(queuebuf.o)
                0x0000df4a                queuebuf_to_packetbuf
 .text.queuebuf_dataptr
                0x0000df7c       0x1c contiki-sky.a(queuebuf.o)
                0x0000df7c                queuebuf_dataptr
 .text.queuebuf_attr
                0x0000df98        0xe contiki-sky.a(queuebuf.o)
                0x0000df98                queuebuf_attr
 .text.init     0x0000dfa6        0x2 contiki-sky.a(nullsec.o)
 .text.send     0x0000dfa8        0xa contiki-sky.a(nullsec.o)
 .text.input    0x0000dfb2        0x6 contiki-sky.a(nullsec.o)
 .text.process_thread_serial_shell_process
                0x0000dfb8       0x4e contiki-sky.a(serial-shell.o)
 .text.shell_default_output
                0x0000e006       0x66 contiki-sky.a(serial-shell.o)
                0x0000e006                shell_default_output
 .text.shell_prompt
                0x0000e06c       0x1a contiki-sky.a(serial-shell.o)
                0x0000e06c                shell_prompt
 .text.shell_exit
                0x0000e086        0x2 contiki-sky.a(serial-shell.o)
                0x0000e086                shell_exit
 .text.serial_shell_init
                0x0000e088        0xc contiki-sky.a(serial-shell.o)
                0x0000e088                serial_shell_init
 .text.process_thread_shell_null_process
                0x0000e094       0x40 contiki-sky.a(shell.o)
 .text.process_thread_shell_exit_process
                0x0000e0d4       0x1a contiki-sky.a(shell.o)
 .text.shell_input
                0x0000e0ee       0x5a contiki-sky.a(shell.o)
                0x0000e0ee                shell_input
 .text.shell_output_str
                0x0000e148       0x9a contiki-sky.a(shell.o)
                0x0000e148                shell_output_str
 .text.command_kill
                0x0000e1e2       0x24 contiki-sky.a(shell.o)
 .text.killall  0x0000e206       0x30 contiki-sky.a(shell.o)
 .text.process_thread_shell_killall_process
                0x0000e236       0x1a contiki-sky.a(shell.o)
 .text.process_thread_shell_kill_process
                0x0000e250       0x88 contiki-sky.a(shell.o)
 .text.process_thread_help_command_process
                0x0000e2d8       0x4c contiki-sky.a(shell.o)
 .text.start_command
                0x0000e324      0x190 contiki-sky.a(shell.o)
 .text.shell_start_command
                0x0000e4b4       0x4c contiki-sky.a(shell.o)
                0x0000e4b4                shell_start_command
 .text.process_thread_shell_process
                0x0000e500       0xb4 contiki-sky.a(shell.o)
 .text.shell_output
                0x0000e5b4       0x68 contiki-sky.a(shell.o)
                0x0000e5b4                shell_output
 .text.shell_register_command
                0x0000e61c       0x62 contiki-sky.a(shell.o)
                0x0000e61c                shell_register_command
 .text.shell_init
                0x0000e67e       0x68 contiki-sky.a(shell.o)
                0x0000e67e                shell_init
 .text.shell_strtolong
                0x0000e6e6       0x9c contiki-sky.a(shell.o)
                0x0000e6e6                shell_strtolong
 .text.shell_time
                0x0000e782        0xe contiki-sky.a(shell.o)
                0x0000e782                shell_time
 .text.shell_set_time
                0x0000e790       0x22 contiki-sky.a(shell.o)
                0x0000e790                shell_set_time
 .text.process_thread_shell_server_process
                0x0000e7b2       0xc0 contiki-sky.a(shell.o)
 .text.process_thread_shell_reboot_process
                0x0000e872       0xde contiki-sky.a(shell-reboot.o)
 .text.shell_reboot_init
                0x0000e950        0xa contiki-sky.a(shell-reboot.o)
                0x0000e950                shell_reboot_init
 .text.process_thread_shell_blink_process
                0x0000e95a      0x168 contiki-sky.a(shell-blink.o)
 .text.shell_blink_init
                0x0000eac2        0xa contiki-sky.a(shell-blink.o)
                0x0000eac2                shell_blink_init
 .text.process_thread_shell_hd_process
                0x0000eacc      0x16e contiki-sky.a(shell-text.o)
 .text.process_thread_shell_binprint_process
                0x0000ec3a      0x194 contiki-sky.a(shell-text.o)
 .text.process_thread_shell_echo_process
                0x0000edce       0x3c contiki-sky.a(shell-text.o)
 .text.process_thread_shell_size_process
                0x0000ee0a       0xaa contiki-sky.a(shell-text.o)
 .text.shell_text_init
                0x0000eeb4       0x22 contiki-sky.a(shell-text.o)
                0x0000eeb4                shell_text_init
 .text.repeat_print_usage
                0x0000eed6       0x12 contiki-sky.a(shell-time.o)
 .text.process_thread_shell_randwait_process
                0x0000eee8      0x122 contiki-sky.a(shell-time.o)
 .text.process_thread_shell_repeat_server_process
                0x0000f00a       0x9c contiki-sky.a(shell-time.o)
 .text.process_thread_shell_repeat_process
                0x0000f0a6      0x142 contiki-sky.a(shell-time.o)
 .text.process_thread_shell_timestamp_process
                0x0000f1e8       0xb4 contiki-sky.a(shell-time.o)
 .text.process_thread_shell_time_process
                0x0000f29c       0x7e contiki-sky.a(shell-time.o)
 .text.shell_time_init
                0x0000f31a       0x22 contiki-sky.a(shell-time.o)
                0x0000f31a                shell_time_init
 .text.process_thread_shell_powertrace_process
                0x0000f33c       0x94 contiki-sky.a(shell-powertrac)
 .text.shell_powertrace_init
                0x0000f3d0       0x10 contiki-sky.a(shell-powertrac)
                0x0000f3d0                shell_powertrace_init
 .text.process_thread_shell_rfchannel_process
                0x0000f3e0       0x5e contiki-sky.a(shell-sky.o)
 .text.process_thread_shell_txpower_process
                0x0000f43e       0x5e contiki-sky.a(shell-sky.o)
 .text.process_thread_shell_senseconv_process
                0x0000f49c      0x21e contiki-sky.a(shell-sky.o)
 .text.do_rssi  0x0000f6ba       0xaa contiki-sky.a(shell-sky.o)
 .text.process_thread_shell_sense_process
                0x0000f764       0xd6 contiki-sky.a(shell-sky.o)
 .text.process_thread_shell_nodeid_process
                0x0000f83a       0x8a contiki-sky.a(shell-sky.o)
 .text.shell_sky_init
                0x0000f8c4       0x2a contiki-sky.a(shell-sky.o)
                0x0000f8c4                shell_sky_init
 .text.add_stats
                0x0000f8ee       0x54 contiki-sky.a(powertrace.o)
 .text.add_packet_stats
                0x0000f942       0x6c contiki-sky.a(powertrace.o)
 .text.output_sniffer
                0x0000f9ae        0x8 contiki-sky.a(powertrace.o)
 .text.input_sniffer
                0x0000f9b6        0x8 contiki-sky.a(powertrace.o)
 .text.powertrace_print
                0x0000f9be      0x82e contiki-sky.a(powertrace.o)
                0x0000f9be                powertrace_print
 .text.process_thread_powertrace_process
                0x000101ec       0x5c contiki-sky.a(powertrace.o)
 .text.powertrace_start
                0x00010248       0x18 contiki-sky.a(powertrace.o)
                0x00010248                powertrace_start
 .text.powertrace_stop
                0x00010260        0xa contiki-sky.a(powertrace.o)
                0x00010260                powertrace_stop
 .text.powertrace_sniff
                0x0001026a       0x1e contiki-sky.a(powertrace.o)
                0x0001026a                powertrace_sniff
 .text.process_thread_shell_packetize_process
                0x00010288       0xe4 contiki-sky.a(shell-rime.o)
 .text.process_thread_shell_routes_process
                0x0001036c       0x92 contiki-sky.a(shell-rime.o)
 .text.process_thread_shell_collect_process
                0x000103fe       0x48 contiki-sky.a(shell-rime.o)
 .text.process_thread_shell_mac_process
                0x00010446       0x6e contiki-sky.a(shell-rime.o)
 .text.process_thread_shell_send_process
                0x000104b4       0xcc contiki-sky.a(shell-rime.o)
 .text.recv_collect
                0x00010580       0xb4 contiki-sky.a(shell-rime.o)
 .text.shell_rime_init
                0x00010634       0x4a contiki-sky.a(shell-rime.o)
                0x00010634                shell_rime_init
 .text.process_thread_shell_netcmd_server_process
                0x0001067e       0x82 contiki-sky.a(shell-rime-netc)
 .text.process_thread_shell_netcmd_process
                0x00010700       0xc4 contiki-sky.a(shell-rime-netc)
 .text.recv_trickle
                0x000107c4       0x4e contiki-sky.a(shell-rime-netc)
 .text.shell_rime_netcmd_init
                0x00010812       0x22 contiki-sky.a(shell-rime-netc)
                0x00010812                shell_rime_netcmd_init
 .text.process_thread_collect_view_data_process
                0x00010834       0x8e contiki-sky.a(shell-collect-v)
 .text.shell_collect_view_init
                0x000108c2        0xa contiki-sky.a(shell-collect-v)
                0x000108c2                shell_collect_view_init
 .text.broadcast_announcement_beacon_interval
                0x000108cc        0xa contiki-sky.a(broadcast-annou)
                0x000108cc                broadcast_announcement_beacon_interval
 .text.sent_by_abc
                0x000108d6       0x10 contiki-sky.a(broadcast.o)
 .text.recv_from_abc
                0x000108e6       0x26 contiki-sky.a(broadcast.o)
 .text.broadcast_open
                0x0001090c       0x2a contiki-sky.a(broadcast.o)
                0x0001090c                broadcast_open
 .text.broadcast_send
                0x00010936       0x1a contiki-sky.a(broadcast.o)
                0x00010936                broadcast_send
 .text.channel_open
                0x00010950       0x10 contiki-sky.a(channel.o)
                0x00010950                channel_open
 .text.channel_lookup
                0x00010960       0x20 contiki-sky.a(channel.o)
                0x00010960                channel_lookup
 .text.channel_set_attributes
                0x00010980       0x24 contiki-sky.a(channel.o)
                0x00010980                channel_set_attributes
 .text.send_packet
                0x000109a4       0x3a contiki-sky.a(collect.o)
 .text.enqueue_dummy_packet
                0x000109de       0x88 contiki-sky.a(collect.o)
 .text.send_ack
                0x00010a66       0x78 contiki-sky.a(collect.o)
 .text.send_queued_packet
                0x00010ade       0xc8 contiki-sky.a(collect.o)
 .text.send_next_packet
                0x00010ba6       0x2c contiki-sky.a(collect.o)
 .text.update_rtmetric
                0x00010bd2       0xf8 contiki-sky.a(collect.o)
 .text.received_announcement
                0x00010cca       0x9c contiki-sky.a(collect.o)
 .text.set_keepalive_timer
                0x00010d66       0x5e contiki-sky.a(collect.o)
 .text.timedout
                0x00010dc4       0x38 contiki-sky.a(collect.o)
 .text.retransmit_callback
                0x00010dfc       0xcc contiki-sky.a(collect.o)
 .text.retransmit_not_sent_callback
                0x00010ec8        0xc contiki-sky.a(collect.o)
 .text.node_packet_sent
                0x00010ed4       0x58 contiki-sky.a(collect.o)
 .text.send_keepalive
                0x00010f2c       0x32 contiki-sky.a(collect.o)
 .text.add_packet_to_recent_packets.part.6
                0x00010f5e       0x52 contiki-sky.a(collect.o)
 .text.node_packet_received
                0x00010fb0      0x2fe contiki-sky.a(collect.o)
 .text.proactive_probing_callback
                0x000112ae       0xe8 contiki-sky.a(collect.o)
 .text.collect_open
                0x00011396       0xec contiki-sky.a(collect.o)
                0x00011396                collect_open
 .text.collect_set_keepalive
                0x00011482        0xe contiki-sky.a(collect.o)
                0x00011482                collect_set_keepalive
 .text.collect_set_sink
                0x00011490       0x68 contiki-sky.a(collect.o)
                0x00011490                collect_set_sink
 .text.collect_send
                0x000114f8       0xe8 contiki-sky.a(collect.o)
                0x000114f8                collect_send
 .text.collect_link_estimate_new
                0x000115e0       0x12 contiki-sky.a(collect-link-es)
                0x000115e0                collect_link_estimate_new
 .text.collect_link_estimate_update_tx
                0x000115f2       0x9e contiki-sky.a(collect-link-es)
                0x000115f2                collect_link_estimate_update_tx
 .text.collect_link_estimate_update_tx_fail
                0x00011690        0xc contiki-sky.a(collect-link-es)
                0x00011690                collect_link_estimate_update_tx_fail
 .text.collect_link_estimate
                0x0001169c       0x18 contiki-sky.a(collect-link-es)
                0x0001169c                collect_link_estimate
 .text.collect_link_estimate_num_estimates
                0x000116b4        0xe contiki-sky.a(collect-link-es)
                0x000116b4                collect_link_estimate_num_estimates
 .text.periodic
                0x000116c2       0x8e contiki-sky.a(collect-neighbo)
 .text.collect_neighbor_init
                0x00011750       0x14 contiki-sky.a(collect-neighbo)
                0x00011750                collect_neighbor_init
 .text.collect_neighbor_list_new
                0x00011764       0x32 contiki-sky.a(collect-neighbo)
                0x00011764                collect_neighbor_list_new
 .text.collect_neighbor_list_find
                0x00011796       0x3a contiki-sky.a(collect-neighbo)
                0x00011796                collect_neighbor_list_find
 .text.collect_neighbor_list_add
                0x000117d0       0xaa contiki-sky.a(collect-neighbo)
                0x000117d0                collect_neighbor_list_add
 .text.collect_neighbor_list
                0x0001187a        0xe contiki-sky.a(collect-neighbo)
                0x0001187a                collect_neighbor_list
 .text.collect_neighbor_list_num
                0x00011888       0x12 contiki-sky.a(collect-neighbo)
                0x00011888                collect_neighbor_list_num
 .text.collect_neighbor_update_rtmetric
                0x0001189a        0xe contiki-sky.a(collect-neighbo)
                0x0001189a                collect_neighbor_update_rtmetric
 .text.collect_neighbor_tx_fail
                0x000118a8       0x1e contiki-sky.a(collect-neighbo)
                0x000118a8                collect_neighbor_tx_fail
 .text.collect_neighbor_tx
                0x000118c6       0x1e contiki-sky.a(collect-neighbo)
                0x000118c6                collect_neighbor_tx
 .text.collect_neighbor_rtmetric_link_estimate
                0x000118e4       0x1c contiki-sky.a(collect-neighbo)
                0x000118e4                collect_neighbor_rtmetric_link_estimate
 .text.collect_neighbor_list_best
                0x00011900       0x4a contiki-sky.a(collect-neighbo)
                0x00011900                collect_neighbor_list_best
 .text.collect_neighbor_rtmetric
                0x0001194a        0xe contiki-sky.a(collect-neighbo)
                0x0001194a                collect_neighbor_rtmetric
 .text.collect_neighbor_set_congested
                0x00011958       0x14 contiki-sky.a(collect-neighbo)
                0x00011958                collect_neighbor_set_congested
 .text.collect_neighbor_is_congested
                0x0001196c       0x18 contiki-sky.a(collect-neighbo)
                0x0001196c                collect_neighbor_is_congested
 .text.collect_neighbor_link_estimate
                0x00011984       0x30 contiki-sky.a(collect-neighbo)
                0x00011984                collect_neighbor_link_estimate
 .text.remove_queued_packet
                0x000119b4       0x36 contiki-sky.a(packetqueue.o)
 .text.packetqueue_enqueue_packetbuf
                0x000119ea       0x7a contiki-sky.a(packetqueue.o)
                0x000119ea                packetqueue_enqueue_packetbuf
 .text.packetqueue_first
                0x00011a64        0xa contiki-sky.a(packetqueue.o)
                0x00011a64                packetqueue_first
 .text.packetqueue_dequeue
                0x00011a6e       0x40 contiki-sky.a(packetqueue.o)
                0x00011a6e                packetqueue_dequeue
 .text.packetqueue_len
                0x00011aae        0xa contiki-sky.a(packetqueue.o)
                0x00011aae                packetqueue_len
 .text.packetqueue_queuebuf
                0x00011ab8        0xe contiki-sky.a(packetqueue.o)
                0x00011ab8                packetqueue_queuebuf
 .text.route_num
                0x00011ac6       0x1e contiki-sky.a(route.o)
                0x00011ac6                route_num
 .text.route_get
                0x00011ae4       0x26 contiki-sky.a(route.o)
                0x00011ae4                route_get
 .text.send     0x00011b0a       0x1c contiki-sky.a(trickle.o)
 .text.run_trickle
                0x00011b26       0xbe contiki-sky.a(trickle.o)
 .text.timer_callback
                0x00011be4        0x6 contiki-sky.a(trickle.o)
 .text.recv     0x00011bea       0x86 contiki-sky.a(trickle.o)
 .text.trickle_open
                0x00011c70       0x44 contiki-sky.a(trickle.o)
                0x00011c70                trickle_open
 .text.trickle_send
                0x00011cb4       0x3e contiki-sky.a(trickle.o)
                0x00011cb4                trickle_send
 .text.sent_by_broadcast
                0x00011cf2       0x10 contiki-sky.a(unicast.o)
 .text.recv_from_broadcast
                0x00011d02       0x2e contiki-sky.a(unicast.o)
 .text.unicast_open
                0x00011d30       0x2a contiki-sky.a(unicast.o)
                0x00011d30                unicast_open
 .text.unicast_send
                0x00011d5a       0x16 contiki-sky.a(unicast.o)
                0x00011d5a                unicast_send
 .text.status   0x00011d70       0x18 contiki-sky.a(sht11-sensor.o)
 .text.configure
                0x00011d88       0x40 contiki-sky.a(sht11-sensor.o)
 .text.value    0x00011dc8       0x2e contiki-sky.a(sht11-sensor.o)
 .text.value    0x00011df6       0x1a contiki-sky.a(light-sensor.o)
 .text.status   0x00011e10        0xc contiki-sky.a(light-sensor.o)
 .text.configure
                0x00011e1c       0x10 contiki-sky.a(light-sensor.o)
 .text.value    0x00011e2c        0x6 contiki-sky.a(battery-sensor.)
 .text.status   0x00011e32        0xc contiki-sky.a(battery-sensor.)
 .text.configure
                0x00011e3e       0x12 contiki-sky.a(battery-sensor.)
 .text.spi_init
                0x00011e50       0x32 contiki-sky.a(spi.o)
                0x00011e50                spi_init
 .text.sky_sensors_status
                0x00011e82       0x42 contiki-sky.a(sky-sensors.o)
                0x00011e82                sky_sensors_status
 .text.sky_sensors_configure
                0x00011ec4       0xfc contiki-sky.a(sky-sensors.o)
                0x00011ec4                sky_sensors_configure
 .text.crc16_add
                0x00011fc0       0x56 contiki-sky.a(crc16.o)
                0x00011fc0                crc16_add
 .text.crc16_data
                0x00012016       0x2a contiki-sky.a(crc16.o)
                0x00012016                crc16_data
 .text.stimer_set
                0x00012040       0x1c contiki-sky.a(stimer.o)
                0x00012040                stimer_set
 .text.stimer_expired
                0x0001205c       0x30 contiki-sky.a(stimer.o)
                0x0001205c                stimer_expired
 .text.memb_init
                0x0001208c       0x36 contiki-sky.a(memb.o)
                0x0001208c                memb_init
 .text.memb_alloc
                0x000120c2       0x3e contiki-sky.a(memb.o)
                0x000120c2                memb_alloc
 .text.memb_free
                0x00012100       0x3a contiki-sky.a(memb.o)
                0x00012100                memb_free
 .text.memb_inmemb
                0x0001213a       0x2e contiki-sky.a(memb.o)
                0x0001213a                memb_inmemb
 .text.memb_numfree
                0x00012168       0x26 contiki-sky.a(memb.o)
                0x00012168                memb_numfree
 .text.update_nbr
                0x0001218e       0xea contiki-sky.a(rpl-nbr-policy.)
 .text.handle_periodic_timer
                0x00012278        0xe contiki-sky.a(rpl-nbr-policy.)
 .text.find_removable_dis
                0x00012286       0x14 contiki-sky.a(rpl-nbr-policy.)
                0x00012286                find_removable_dis
 .text.find_removable_dio
                0x0001229a       0x3e contiki-sky.a(rpl-nbr-policy.)
                0x0001229a                find_removable_dio
 .text.find_removable_dao
                0x000122d8       0x32 contiki-sky.a(rpl-nbr-policy.)
                0x000122d8                find_removable_dao
 .text.rpl_nbr_policy_find_removable
                0x0001230a       0x30 contiki-sky.a(rpl-nbr-policy.)
                0x0001230a                rpl_nbr_policy_find_removable
 .text.frame802154_get_pan_id
                0x0001233a        0x6 contiki-sky.a(frame802154.o)
                0x0001233a                frame802154_get_pan_id
 .text.frame802154_has_panid
                0x00012340       0xdc contiki-sky.a(frame802154.o)
                0x00012340                frame802154_has_panid
 .text.field_len
                0x0001241c       0xb2 contiki-sky.a(frame802154.o)
 .text.frame802154_is_broadcast_addr
                0x000124ce       0x24 contiki-sky.a(frame802154.o)
                0x000124ce                frame802154_is_broadcast_addr
 .text.frame802154_hdrlen
                0x000124f2       0x32 contiki-sky.a(frame802154.o)
                0x000124f2                frame802154_hdrlen
 .text.frame802154_create_fcf
                0x00012524       0x96 contiki-sky.a(frame802154.o)
                0x00012524                frame802154_create_fcf
 .text.frame802154_create
                0x000125ba       0xe4 contiki-sky.a(frame802154.o)
                0x000125ba                frame802154_create
 .text.frame802154_parse_fcf
                0x0001269e       0xbe contiki-sky.a(frame802154.o)
                0x0001269e                frame802154_parse_fcf
 .text.frame802154_parse
                0x0001275c      0x18c contiki-sky.a(frame802154.o)
                0x0001275c                frame802154_parse
 .text.mac_sequence_is_duplicate
                0x000128e8       0x6e contiki-sky.a(mac-sequence.o)
                0x000128e8                mac_sequence_is_duplicate
 .text.mac_sequence_register_seqno
                0x00012956       0x88 contiki-sky.a(mac-sequence.o)
                0x00012956                mac_sequence_register_seqno
 .text.collect_view_construct_message
                0x000129de      0x158 contiki-sky.a(collect-view.o)
                0x000129de                collect_view_construct_message
 .text.collect_view_arch_read_sensors
                0x00012b36       0x9c contiki-sky.a(collect-view-sk)
                0x00012b36                collect_view_arch_read_sensors
 .text.abc_open
                0x00012bd2       0x26 contiki-sky.a(abc.o)
                0x00012bd2                abc_open
 .text.abc_send
                0x00012bf8        0x6 contiki-sky.a(abc.o)
                0x00012bf8                abc_send
 .text.abc_sent
                0x00012bfe       0x10 contiki-sky.a(abc.o)
                0x00012bfe                abc_sent
 .text.announcement_register
                0x00012c0e       0x3e contiki-sky.a(announcement.o)
                0x00012c0e                announcement_register
 .text.announcement_set_value
                0x00012c4c       0x28 contiki-sky.a(announcement.o)
                0x00012c4c                announcement_set_value
 .text.announcement_bump
                0x00012c74       0x22 contiki-sky.a(announcement.o)
                0x00012c74                announcement_bump
 .text.chameleon_create
                0x00012c96       0x1c contiki-sky.a(chameleon.o)
                0x00012c96                chameleon_create
 .text.chameleon_hdrsize
                0x00012cb2        0x6 contiki-sky.a(chameleon.o)
                0x00012cb2                chameleon_hdrsize
 .text.packet_sent
                0x00012cb8       0x44 contiki-sky.a(rime.o)
 .text.rime_output
                0x00012cfc       0x24 contiki-sky.a(rime.o)
                0x00012cfc                rime_output
 .text.crc8_add
                0x00012d20       0x1c contiki-sky.a(sht11.o)
 .text.sstart   0x00012d3c       0x3e contiki-sky.a(sht11.o)
 .text.swrite   0x00012d7a       0x52 contiki-sky.a(sht11.o)
 .text.sread    0x00012dcc       0x4e contiki-sky.a(sht11.o)
 .text.sreset   0x00012e1a       0x2a contiki-sky.a(sht11.o)
 .text.scmd.part.0
                0x00012e44       0xb0 contiki-sky.a(sht11.o)
 .text.sht11_init
                0x00012ef4       0x1a contiki-sky.a(sht11.o)
                0x00012ef4                sht11_init
 .text.sht11_off
                0x00012f0e       0x14 contiki-sky.a(sht11.o)
                0x00012f0e                sht11_off
 .text.sht11_temp
                0x00012f22        0xa contiki-sky.a(sht11.o)
                0x00012f22                sht11_temp
 .text.sht11_humidity
                0x00012f2c        0xa contiki-sky.a(sht11.o)
                0x00012f2c                sht11_humidity
 .text.sht11_sreg
                0x00012f36       0x7a contiki-sky.a(sht11.o)
                0x00012f36                sht11_sreg
 .text.get_bits_in_byte
                0x00012fb0       0x3a contiki-sky.a(chameleon-bitop)
 .text.header_size
                0x00012fea       0x16 contiki-sky.a(chameleon-bitop)
 .text.get_bits
                0x00013000       0xa4 contiki-sky.a(chameleon-bitop)
                0x00013000                get_bits
 .text.unpack_header
                0x000130a4       0xe0 contiki-sky.a(chameleon-bitop)
 .text.set_bits
                0x00013184      0x116 contiki-sky.a(chameleon-bitop)
                0x00013184                set_bits
 .text.pack_header
                0x0001329a       0xc8 contiki-sky.a(chameleon-bitop)
 .text.libgcc   0x00013362       0x2c /usr/lib/gcc/msp430/4.6.3/mmpy-16/libgcc.a(_mulsi3.o)
                0x00013362                __mulsi3
 .text.libgcc   0x0001338e       0x22 /usr/lib/gcc/msp430/4.6.3/mmpy-16/libgcc.a(_udivmod16.o)
                0x0001338e                __udivhi3
                0x0001338e                __ext_udivmod16
                0x000133a8                __umodhi3
 .text.libgcc   0x000133b0       0x3a /usr/lib/gcc/msp430/4.6.3/mmpy-16/libgcc.a(_divmod16.o)
                0x000133b0                __ext_divmod16
                0x000133b0                __divhi3
                0x000133e2                __modhi3
 .text.libgcc   0x000133ea       0x40 /usr/lib/gcc/msp430/4.6.3/mmpy-16/libgcc.a(_udivmod32.o)
                0x000133ea                __udivsi3
                0x000133ea                __ext_udivmod32
                0x00013420                __umodsi3
 .text.libgcc   0x0001342a       0x4c /usr/lib/gcc/msp430/4.6.3/mmpy-16/libgcc.a(_divmod32.o)
                0x0001342a                __ext_divmod32
                0x0001342a                __divsi3
                0x0001346c                __modsi3
 .text          0x00013476       0x12 /usr/lib/gcc/msp430/4.6.3/../../../../msp430/lib/mmpy-16/libc.a(strchr.o)
                0x00013476                strchr
 .text          0x00013488       0x1e /usr/lib/gcc/msp430/4.6.3/../../../../msp430/lib/mmpy-16/libc.a(strcmp.o)
                0x00013488                strcmp
 .text          0x000134a6       0x28 /usr/lib/gcc/msp430/4.6.3/../../../../msp430/lib/mmpy-16/libc.a(strncmp.o)
                0x000134a6                strncmp
 .text          0x000134ce       0x20 /usr/lib/gcc/msp430/4.6.3/../../../../msp430/lib/mmpy-16/libc.a(memcmp.o)
                0x000134ce                memcmp
 .text          0x000134ee       0x14 /usr/lib/gcc/msp430/4.6.3/../../../../msp430/lib/mmpy-16/libc.a(strcpy.o)
                0x000134ee                strcpy
 .text          0x00013502       0x2a /usr/lib/gcc/msp430/4.6.3/../../../../msp430/lib/mmpy-16/libc.a(strncpy.o)
                0x00013502                strncpy
 .text          0x0001352c       0xfa /usr/lib/gcc/msp430/4.6.3/../../../../msp430/lib/mmpy-16/libc.a(memcpy.o)
                0x0001352c                memcpy
 .text          0x00013626       0xfa /usr/lib/gcc/msp430/4.6.3/../../../../msp430/lib/mmpy-16/libc.a(memmove.o)
                0x00013626                memmove
 .text          0x00013720       0x6a /usr/lib/gcc/msp430/4.6.3/../../../../msp430/lib/mmpy-16/libc.a(memset.o)
                0x00013720                memset
 .text          0x0001378a       0x1e /usr/lib/gcc/msp430/4.6.3/../../../../msp430/lib/mmpy-16/libc.a(printf.o)
                0x0001378a                printf
                0x0001379a                vprintf
 .text          0x000137a8       0xbc /usr/lib/gcc/msp430/4.6.3/../../../../msp430/lib/mmpy-16/libc.a(sprintf.o)
                0x00013806                sprintf
                0x00013822                snprintf
                0x0001383c                vsprintf
                0x00013852                vsnprintf
 .text          0x00013864      0x836 /usr/lib/gcc/msp430/4.6.3/../../../../msp430/lib/mmpy-16/libc.a(vuprintf.o)
                0x000139fc                vuprintf
 .text          0x0001409a       0x2c /usr/lib/gcc/msp430/4.6.3/../../../../msp430/lib/mmpy-16/libc.a(puts.o)
                0x0001409a                puts
 .text          0x000140c6       0x54 /usr/lib/gcc/msp430/4.6.3/../../../../msp430/lib/mmpy-16/libc.a(rand.o)
                0x000140c6                rand_r
                0x000140ea                rand
                0x00014110                srand
 .text.libgcc   0x0001411a       0xf0 /usr/lib/gcc/msp430/4.6.3/mmpy-16/libgcc.a(_udivmod64.o)
                0x0001411a                __xabi_udivmod64
                0x00014178                __udivdi3
                0x0001419e                __umoddi3
                0x000141cc                __udivmoddi4
 .text.crt0     0x0001420a        0x2 /usr/lib/gcc/msp430/4.6.3/mmpy-16/libcrt0.a(_unexpected_.o)
                0x0001420a                _unexpected_
                0x0001420c                . = ALIGN (0x2)

.rodata         0x0001420c      0xf20
                0x0001420c                . = ALIGN (0x2)
 *(.rodata .rodata.* .gnu.linkonce.r.*)
 .rodata        0x0001420c      0x13a udp-server.co
                0x0001432e                autostart_processes
 .rodata        0x00014346      0x12e obj_sky/contiki-sky-main.o
 .rodata        0x00014474       0x10 contiki-sky.a(button-sensor.o)
                0x0001447c                button_sensor
 .rodata        0x00014484        0x8 contiki-sky.a(sensors.o)
 .rodata        0x0001448c       0x70 contiki-sky.a(cc2420.o)
                0x000144be                cc2420_aes_128_driver
                0x000144c2                cc2420_driver
 .rodata        0x000144fc        0xf contiki-sky.a(ctimer.o)
 .rodata        0x0001450b        0xc contiki-sky.a(etimer.o)
 *fill*         0x00014517        0x1 00
 .rodata        0x00014518       0x24 contiki-sky.a(sicslowpan.o)
                0x00014524                sicslowpan_driver
                0x0001452a                llprefix
                0x0001452c                unc_mxconf
                0x00014530                unc_ctxconf
                0x00014534                unc_llconf
 .rodata        0x0001453c       0x20 contiki-sky.a(uip6.o)
 .rodata        0x0001455c       0xd5 contiki-sky.a(uip-ds6-route.o)
 .rodata        0x00014631        0xd contiki-sky.a(tcpip.o)
 .rodata        0x0001463e       0x28 contiki-sky.a(uip-debug.o)
 .rodata        0x00014666       0x14 contiki-sky.a(csma.o)
                0x0001466c                csma_driver
 .rodata        0x0001467a        0x6 contiki-sky.a(framer-802154.o)
                0x0001467a                framer_802154
 .rodata        0x00014680       0x18 contiki-sky.a(nullrdc.o)
                0x00014688                nullrdc_driver
 .rodata        0x00014698        0x8 contiki-sky.a(linkaddr.o)
                0x00014698                linkaddr_null
 .rodata        0x000146a0       0x10 contiki-sky.a(nullsec.o)
                0x000146a8                nullsec_driver
 .rodata        0x000146b0       0x24 contiki-sky.a(serial-shell.o)
 .rodata        0x000146d4      0x19e contiki-sky.a(shell.o)
 .rodata        0x00014872       0x48 contiki-sky.a(shell-reboot.o)
 .rodata        0x000148ba       0x2c contiki-sky.a(shell-blink.o)
 .rodata        0x000148e6       0xbd contiki-sky.a(shell-text.o)
 .rodata        0x000149a3      0x155 contiki-sky.a(shell-time.o)
 .rodata        0x00014af8       0x89 contiki-sky.a(shell-powertrac)
 .rodata        0x00014b81      0x15e contiki-sky.a(shell-sky.o)
 .rodata        0x00014cdf      0x11d contiki-sky.a(powertrace.o)
 .rodata        0x00014dfc      0x1b4 contiki-sky.a(shell-rime.o)
 .rodata        0x00014fb0       0xac contiki-sky.a(shell-rime-netc)
 .rodata        0x0001505c       0x54 contiki-sky.a(shell-collect-v)
 .rodata        0x000150b0        0x8 contiki-sky.a(broadcast.o)
 .rodata        0x000150b8       0x18 contiki-sky.a(collect.o)
 .rodata        0x000150d0        0xa contiki-sky.a(trickle.o)
 .rodata        0x000150da        0xa contiki-sky.a(unicast.o)
 .rodata        0x000150e4        0xe contiki-sky.a(sht11-sensor.o)
                0x000150ea                sht11_sensor
 .rodata        0x000150f2        0xe contiki-sky.a(light-sensor.o)
                0x000150f8                light_sensor
 .rodata        0x00015100       0x10 contiki-sky.a(battery-sensor.)
                0x00015108                battery_sensor
 .rodata        0x00015110        0x2 contiki-sky.a(frame802154.o)
 .rodata        0x00015112        0x2 contiki-sky.a(abc.o)
 .rodata        0x00015114       0x10 contiki-sky.a(chameleon-bitop)
                0x00015114                chameleon_bitopt
 .rodata        0x00015124        0x7 /usr/lib/gcc/msp430/4.6.3/../../../../msp430/lib/mmpy-16/libc.a(vuprintf.o)
                0x0001512c                . = ALIGN (0x2)
 *fill*         0x0001512b        0x1 00
                0x0001512c                _etext = .

.data           0x00001100      0x3b6 load address 0x0001512c
                0x00001100                . = ALIGN (0x2)
                0x00001100                PROVIDE (__data_start, .)
 *(.data .data.* .gnu.linkonce.d.*)
 .data          0x00001100        0xa udp-server.co
                0x00001100                udp_server_process
 .data          0x0000110a        0x4 contiki-sky.a(contiki-sky-pla)
                0x0000110a                sensors
 .data          0x0000110e        0xa contiki-sky.a(sensors.o)
                0x0000110e                sensors_process
 .data          0x00001118        0xc contiki-sky.a(cc2420.o)
                0x00001118                cc2420_process
 .data          0x00001124        0x2 contiki-sky.a(msp430.o)
 .data          0x00001126        0xa contiki-sky.a(ctimer.o)
                0x00001126                ctimer_process
 .data          0x00001130        0xa contiki-sky.a(etimer.o)
                0x00001130                etimer_process
 .data          0x0000113a        0xa contiki-sky.a(uip-ds6-nbr.o)
                0x0000113a                ds6_neighbors
 .data          0x00001144       0x22 contiki-sky.a(uip-ds6-route.o)
                0x00001144                nbr_routes
 .data          0x00001166        0xc contiki-sky.a(uip-icmp6.o)
 .data          0x00001172        0x6 contiki-sky.a(uip-nd6.o)
 .data          0x00001178        0xa contiki-sky.a(tcpip.o)
                0x00001178                tcpip_process
 .data          0x00001182        0xa contiki-sky.a(rpl-dag.o)
                0x00001182                rpl_parents
 .data          0x0000118c       0x1a contiki-sky.a(rpl-icmp6.o)
 .data          0x000011a6       0x12 contiki-sky.a(rpl-mrhof.o)
                0x000011a6                rpl_mrhof
 .data          0x000011b8       0x18 contiki-sky.a(csma.o)
 .data          0x000011d0        0x8 contiki-sky.a(link-stats.o)
 .data          0x000011d8        0x8 contiki-sky.a(nbr-table.o)
 .data          0x000011e0       0x10 contiki-sky.a(queuebuf.o)
 .data          0x000011f0        0xa contiki-sky.a(serial-shell.o)
                0x000011f0                serial_shell_process
 .data          0x000011fa       0xac contiki-sky.a(shell.o)
                0x000011fa                shell_exit_process
                0x00001204                shell_null_process
                0x0000120e                shell_kill_process
                0x00001218                shell_killall_process
                0x00001222                help_command_process
                0x0000122c                shell_server_process
                0x00001236                shell_process
 .data          0x000012a6       0x14 contiki-sky.a(shell-reboot.o)
                0x000012a6                shell_reboot_process
 .data          0x000012ba       0x14 contiki-sky.a(shell-blink.o)
                0x000012ba                shell_blink_process
 .data          0x000012ce       0x50 contiki-sky.a(shell-text.o)
                0x000012ce                shell_size_process
                0x000012d8                shell_hd_process
                0x000012e2                shell_binprint_process
                0x000012ec                shell_echo_process
 .data          0x0000131e       0x5a contiki-sky.a(shell-time.o)
                0x0000131e                shell_randwait_process
                0x00001328                shell_repeat_server_process
                0x00001332                shell_repeat_process
                0x0000133c                shell_timestamp_process
                0x00001346                shell_time_process
 .data          0x00001378       0x14 contiki-sky.a(shell-powertrac)
                0x00001378                shell_powertrace_process
 .data          0x0000138c       0x64 contiki-sky.a(shell-sky.o)
                0x0000138c                shell_rfchannel_process
                0x00001396                shell_txpower_process
                0x000013a0                shell_senseconv_process
                0x000013aa                shell_sense_process
                0x000013b4                shell_nodeid_process
 .data          0x000013f0       0x18 contiki-sky.a(powertrace.o)
                0x000013f0                powertrace_process
 .data          0x00001408       0x64 contiki-sky.a(shell-rime.o)
                0x00001408                shell_packetize_process
                0x00001412                shell_routes_process
                0x0000141c                shell_collect_process
                0x00001426                shell_send_process
                0x00001430                shell_mac_process
 .data          0x0000146c       0x1e contiki-sky.a(shell-rime-netc)
                0x0000146c                shell_netcmd_server_process
                0x00001476                shell_netcmd_process
 .data          0x0000148a       0x14 contiki-sky.a(shell-collect-v)
                0x0000148a                collect_view_data_process
 .data          0x0000149e        0x8 contiki-sky.a(collect.o)
 .data          0x000014a6        0x8 contiki-sky.a(collect-neighbo)
 .data          0x000014ae        0x1 contiki-sky.a(sht11-sensor.o)
 *fill*         0x000014af        0x1 00
 .data          0x000014b0        0x2 contiki-sky.a(frame802154.o)
 .data          0x000014b2        0x4 /usr/lib/gcc/msp430/4.6.3/../../../../msp430/lib/mmpy-16/libc.a(rand.o)
                0x000014b6                . = ALIGN (0x2)
                0x000014b6                _edata = .
                0x0001512c                PROVIDE (__data_load_start, LOADADDR (.data))
                0x000003b6                PROVIDE (__data_size, SIZEOF (.data))

.bss            0x000014b6     0x23da load address 0x000154e2
                0x000014b6                PROVIDE (__bss_start, .)
 *(.bss .bss.*)
 .bss           0x000014b6        0x2 udp-server.co
 .bss           0x000014b8        0xc obj_sky/contiki-sky-main.o
 .bss           0x000014c4        0x8 contiki-sky.a(button-sensor.o)
 .bss           0x000014cc        0x2 contiki-sky.a(node-id.o)
                0x000014cc                node_id
 .bss           0x000014ce        0x6 contiki-sky.a(sensors.o)
 .bss           0x000014d4        0xa contiki-sky.a(cc2420.o)
 .bss           0x000014de       0x9a contiki-sky.a(uart1.o)
 .bss           0x00001578        0xa contiki-sky.a(clock.o)
 .bss           0x00001582        0x1 contiki-sky.a(leds.o)
 *fill*         0x00001583        0x1 00
 .bss           0x00001584        0x2 contiki-sky.a(watchdog.o)
 .bss           0x00001586        0x4 contiki-sky.a(ctimer.o)
 .bss           0x0000158a        0x6 contiki-sky.a(etimer.o)
 .bss           0x00001590       0x38 contiki-sky.a(process.o)
                0x00001590                process_current
                0x00001592                process_list
 .bss           0x000015c8        0x2 contiki-sky.a(rtimer.o)
 .bss           0x000015ca      0x6e6 contiki-sky.a(sicslowpan.o)
 .bss           0x00001cb0        0xc contiki-sky.a(uip6.o)
                0x00001cb0                uip_ext_opt_offset
                0x00001cb2                uip_ext_len
                0x00001cb4                uip_ext_bitmap
 .bss           0x00001cbc       0x18 contiki-sky.a(uip-ds6.o)
 .bss           0x00001cd4       0xb4 contiki-sky.a(uip-ds6-nbr.o)
 .bss           0x00001d88      0x1e6 contiki-sky.a(uip-ds6-route.o)
 .bss           0x00001f6e       0x14 contiki-sky.a(uip-icmp6.o)
 .bss           0x00001f82        0x8 contiki-sky.a(uip-nd6.o)
 .bss           0x00001f8a       0x30 contiki-sky.a(tcpip.o)
 .bss           0x00001fba        0x2 contiki-sky.a(rpl.o)
 .bss           0x00001fbc       0x3c contiki-sky.a(rpl-dag.o)
 .bss           0x00001ff8       0x18 contiki-sky.a(rpl-timers.o)
 .bss           0x00002010       0xc0 contiki-sky.a(csma.o)
 .bss           0x000020d0        0x2 contiki-sky.a(framer-802154.o)
 .bss           0x000020d2       0x64 contiki-sky.a(link-stats.o)
 .bss           0x00002136       0x96 contiki-sky.a(nbr-table.o)
 .bss           0x000021cc       0x86 contiki-sky.a(packetbuf.o)
 .bss           0x00002252      0x5a0 contiki-sky.a(queuebuf.o)
 .bss           0x000027f2       0x16 contiki-sky.a(shell.o)
 .bss           0x00002808        0xc contiki-sky.a(shell-reboot.o)
 .bss           0x00002814       0x12 contiki-sky.a(shell-blink.o)
 .bss           0x00002826        0x4 contiki-sky.a(shell-text.o)
 .bss           0x0000282a       0xa6 contiki-sky.a(shell-time.o)
 .bss           0x000028d0       0x82 contiki-sky.a(shell-sky.o)
 .bss           0x00002952      0x31a contiki-sky.a(powertrace.o)
 .bss           0x00002c6c        0xc contiki-sky.a(shell-rime.o)
 .bss           0x00002c78       0x58 contiki-sky.a(shell-rime-netc)
 .bss           0x00002cd0       0x46 contiki-sky.a(broadcast-annou)
 .bss           0x00002d16        0x2 contiki-sky.a(channel.o)
 .bss           0x00002d18      0x170 contiki-sky.a(collect.o)
 .bss           0x00002e88       0xfa contiki-sky.a(collect-neighbo)
 .bss           0x00002f82       0xde contiki-sky.a(route.o)
 .bss           0x00003060        0x4 contiki-sky.a(sky-sensors.o)
 .bss           0x00003064       0x20 contiki-sky.a(rpl-nbr-policy.)
 .bss           0x00003084       0xe0 contiki-sky.a(mac-sequence.o)
 .bss           0x00003164       0x10 contiki-sky.a(collect-view.o)
 .bss           0x00003174        0x6 contiki-sky.a(announcement.o)
 .bss           0x0000317a        0x2 contiki-sky.a(rime.o)
 .bss           0x0000317c        0x4 /usr/lib/gcc/msp430/4.6.3/../../../../msp430/lib/mmpy-16/libc.a(sprintf.o)
 *(COMMON)
 COMMON         0x00003180        0x2 contiki-sky.a(contiki-sky-pla)
                0x00003180                sensors_flags
 COMMON         0x00003182        0x8 contiki-sky.a(ds2411.o)
                0x00003182                ds2411_id
 COMMON         0x0000318a        0x1 contiki-sky.a(sensors.o)
                0x0000318a                sensors_event
 *fill*         0x0000318b        0x1 00
 COMMON         0x0000318c       0x10 contiki-sky.a(cc2420.o)
                0x0000318c                cc2420_last_rssi
                0x0000318e                cc2420_sfd_start_time
                0x00003190                cc2420_time_of_departure
                0x00003192                cc2420_time_of_arrival
                0x00003194                cc2420_last_correlation
                0x00003196                cc2420_authority_level_of_sender
                0x00003198                cc2420_sfd_counter
                0x0000319a                cc2420_sfd_end_time
 COMMON         0x0000319c        0x2 contiki-sky.a(msp430.o)
                0x0000319c                msp430_dco_required
 COMMON         0x0000319e       0x56 contiki-sky.a(energest.o)
                0x0000319e                energest_total_time
                0x000031ce                energest_total_count
                0x000031d0                energest_current_mode
                0x000031dc                energest_current_time
 COMMON         0x000031f4        0x1 contiki-sky.a(process.o)
                0x000031f4                process_maxevents
 *fill*         0x000031f5        0x1 00
 COMMON         0x000031f6      0x304 contiki-sky.a(uip6.o)
                0x000031f6                uip_len
                0x000031f8                uip_sappdata
                0x000031fa                uip_acc32
                0x000031fe                uip_lladdr
                0x00003206                uip_aligned_buf
                0x000032f6                uip_flags
                0x000032f8                uip_next_hdr
                0x000032fa                uip_udp_conn
                0x000032fc                uip_appdata
                0x000032fe                uip_conn
                0x00003300                uip_conns
                0x000033b0                uip_listenports
                0x000033c0                uip_slen
                0x000033c2                uip_udp_conns
 COMMON         0x000034fa      0x15c contiki-sky.a(uip-ds6.o)
                0x000034fa                uip_ds6_timer_ra
                0x00003502                uip_ds6_if
                0x000035ee                uip_ds6_netif_addr_list_offset
                0x000035ef                uip_ds6_addr_size
                0x000035f0                uip_ds6_prefix_list
                0x0000364a                uip_ds6_timer_periodic
 COMMON         0x00003656        0x1 contiki-sky.a(tcpip.o)
                0x00003656                tcpip_event
 *fill*         0x00003657        0x1 00
 COMMON         0x00003658      0x100 contiki-sky.a(rpl-dag.o)
                0x00003658                default_instance
                0x0000365a                instance_table
 COMMON         0x00003758        0x8 contiki-sky.a(linkaddr.o)
                0x00003758                linkaddr_node_addr
 COMMON         0x00003760       0x14 contiki-sky.a(link-stats.o)
                0x00003760                periodic_timer
 COMMON         0x00003774       0x2e contiki-sky.a(packetbuf.o)
                0x00003774                packetbuf_addrs
                0x00003784                packetbuf_attrs
 COMMON         0x000037a2        0x2 contiki-sky.a(shell.o)
                0x000037a2                shell_event_input
 COMMON         0x000037a4       0xaa contiki-sky.a(shell-rime.o)
                0x000037a4                shell_collect_conn
 COMMON         0x0000384e       0x38 contiki-sky.a(collect.o)
                0x0000384e                stats
 COMMON         0x00003886        0x8 contiki-sky.a(compower.o)
                0x00003886                compower_idle_activity
 COMMON         0x0000388e        0x1 contiki-sky.a(serial-line.o)
                0x0000388e                serial_line_event_message
                0x00003890                . = ALIGN (0x2)
 *fill*         0x0000388f        0x1 00
                0x00003890                PROVIDE (__bss_end, .)
                0x000023da                PROVIDE (__bss_size, SIZEOF (.bss))

.noinit         0x00003890        0x2 load address 0x000154e2
                0x00003890                PROVIDE (__noinit_start, .)
 *(.noinit .noinit.*)
 .noinit.crt0   0x00003890        0x2 /usr/lib/gcc/msp430/4.6.3/mmpy-16/libcrt0.a(__watchdog_support.o)
                0x00003890                __wdt_clear_value
                0x00003892                . = ALIGN (0x2)
                0x00003892                PROVIDE (__noinit_end, .)
                0x00003892                . = ALIGN (0x2)
                0x00003892                _end = .

.infomem        0x00001000        0x0
 *(.infomem)
                0x00001000                . = ALIGN (0x2)
 *(.infomem.*)

.infomemnobits  0x00001000        0x0
 *(.infomemnobits)
                0x00001000                . = ALIGN (0x2)
 *(.infomemnobits.*)

.infoa
 *(.infoa .infoa.*)

.infob
 *(.infob .infob.*)

.infoc
 *(.infoc .infoc.*)

.infod
 *(.infod .infod.*)

.vectors        0x0000ffe0       0x20
                0x0000ffe0                PROVIDE (__vectors_start, .)
 *(.vectors*)
 .vectors       0x0000ffe0       0x20 /usr/lib/gcc/msp430/4.6.3/mmpy-16/crt0ivtbl16.o
                0x0000ffe0                __ivtbl_16
                0x00010000                _vectors_end = .

.fartext        0x00000000        0x0
                0x00000000                . = ALIGN (0x2)
 *(.fartext)
                0x00000000                . = ALIGN (0x2)
 *(.fartext.*)
                0x00000000                _efartext = .

.profiler
 *(.profiler)

.stab           0x00000000    0x3e460
 *(.stab)
 .stab          0x00000000     0x1b3c udp-server.co
 .stab          0x00001b3c     0x1350 obj_sky/contiki-sky-main.o
                               0x1b30 (size before relaxing)
 .stab          0x00002e8c      0x258 contiki-sky.a(contiki-sky-pla)
                                0x5b8 (size before relaxing)
 .stab          0x000030e4      0x468 contiki-sky.a(button-sensor.o)
                                0x7d4 (size before relaxing)
 .stab          0x0000354c      0x624 contiki-sky.a(ds2411.o)
                                0xb40 (size before relaxing)
 .stab          0x00003b70      0xbac contiki-sky.a(xmem.o)
                                0xf60 (size before relaxing)
 .stab          0x0000471c      0x2b8 contiki-sky.a(node-id.o)
                                0x4e0 (size before relaxing)
 .stab          0x000049d4      0x654 contiki-sky.a(sensors.o)
                                0xb70 (size before relaxing)
 .stab          0x00005028     0x2904 contiki-sky.a(cc2420.o)
                               0x2fe8 (size before relaxing)
 .stab          0x0000792c      0x630 contiki-sky.a(cc2420-arch.o)
                               0x1734 (size before relaxing)
 .stab          0x00007f5c      0x60c contiki-sky.a(uart1.o)
                                0x960 (size before relaxing)
 .stab          0x00008568      0x234 contiki-sky.a(uart1-putchar.o)
                                0x588 (size before relaxing)
 .stab          0x0000879c      0x744 contiki-sky.a(msp430.o)
                                0xa98 (size before relaxing)
 .stab          0x00008ee0      0x948 contiki-sky.a(clock.o)
                                0xc9c (size before relaxing)
 .stab          0x00009828      0x5dc contiki-sky.a(leds.o)
                                0x828 (size before relaxing)
 .stab          0x00009e04      0x3a8 contiki-sky.a(leds-arch.o)
                                0x6fc (size before relaxing)
 .stab          0x0000a1ac      0x3fc contiki-sky.a(watchdog.o)
                                0x750 (size before relaxing)
 .stab          0x0000a5a8      0x3cc contiki-sky.a(rtimer-arch.o)
                                0x720 (size before relaxing)
 .stab          0x0000a974      0x294 contiki-sky.a(autostart.o)
                                0x534 (size before relaxing)
 .stab          0x0000ac08      0x858 contiki-sky.a(ctimer.o)
                                0xbc4 (size before relaxing)
 .stab          0x0000b460      0x474 contiki-sky.a(energest.o)
                                0x6fc (size before relaxing)
 .stab          0x0000b8d4      0xabc contiki-sky.a(etimer.o)
                                0xd8c (size before relaxing)
 .stab          0x0000c390      0xba0 contiki-sky.a(process.o)
                               0x1038 (size before relaxing)
 .stab          0x0000cf30      0x3d8 contiki-sky.a(rtimer.o)
                                0x6c0 (size before relaxing)
 .stab          0x0000d308      0x354 contiki-sky.a(timer.o)
                                0x594 (size before relaxing)
 .stab          0x0000d65c      0x7f8 contiki-sky.a(list.o)
                                0x804 (size before relaxing)
 .stab          0x0000de54      0x228 contiki-sky.a(random.o)
                                0x624 (size before relaxing)
 .stab          0x0000e07c     0x2934 contiki-sky.a(sicslowpan.o)
                               0x3300 (size before relaxing)
 .stab          0x000109b0     0x2b14 contiki-sky.a(uip6.o)
                               0x3750 (size before relaxing)
 .stab          0x000134c4     0x1434 contiki-sky.a(uip-ds6.o)
                               0x210c (size before relaxing)
 .stab          0x000148f8      0xc9c contiki-sky.a(uip-ds6-nbr.o)
                               0x15a8 (size before relaxing)
 .stab          0x00015594     0x1554 contiki-sky.a(uip-ds6-route.o)
                               0x216c (size before relaxing)
 .stab          0x00016ae8      0xbdc contiki-sky.a(uip-icmp6.o)
                               0x18d8 (size before relaxing)
 .stab          0x000176c4      0x780 contiki-sky.a(uip-nd6.o)
                               0x13ec (size before relaxing)
 .stab          0x00017e44     0x13ec contiki-sky.a(tcpip.o)
                               0x2700 (size before relaxing)
 .stab          0x00019230      0x3d8 contiki-sky.a(uip-debug.o)
                                0xbac (size before relaxing)
 .stab          0x00019608      0xb70 contiki-sky.a(rpl.o)
                               0x198c (size before relaxing)
 .stab          0x0001a178     0x36cc contiki-sky.a(rpl-dag.o)
                               0x4380 (size before relaxing)
 .stab          0x0001d844      0xa50 contiki-sky.a(rpl-ext-header.)
                               0x1860 (size before relaxing)
 .stab          0x0001e294     0x1a4c contiki-sky.a(rpl-icmp6.o)
                               0x28a4 (size before relaxing)
 .stab          0x0001fce0      0x9d8 contiki-sky.a(rpl-mrhof.o)
                               0x17ac (size before relaxing)
 .stab          0x000206b8      0xfc0 contiki-sky.a(rpl-timers.o)
                               0x1d94 (size before relaxing)
 .stab          0x00021678     0x1134 contiki-sky.a(csma.o)
                               0x165c (size before relaxing)
 .stab          0x000227ac      0x90c contiki-sky.a(framer-802154.o)
                                0xf18 (size before relaxing)
 .stab          0x000230b8      0x1f8 contiki-sky.a(mac.o)
                                0x4ec (size before relaxing)
 .stab          0x000232b0      0x954 contiki-sky.a(nullrdc.o)
                               0x129c (size before relaxing)
 .stab          0x00023c04      0x2c4 contiki-sky.a(linkaddr.o)
                                0x6c0 (size before relaxing)
 .stab          0x00023ec8      0x7d4 contiki-sky.a(link-stats.o)
                               0x11a0 (size before relaxing)
 .stab          0x0002469c      0xfd8 contiki-sky.a(nbr-table.o)
                               0x1944 (size before relaxing)
 .stab          0x00025674      0xc6c contiki-sky.a(packetbuf.o)
                               0x1da0 (size before relaxing)
 .stab          0x000262e0      0xaa4 contiki-sky.a(queuebuf.o)
                               0x1bc0 (size before relaxing)
 .stab          0x00026d84      0x3c0 contiki-sky.a(nullsec.o)
                                0xcf0 (size before relaxing)
 .stab          0x00027144      0x9cc contiki-sky.a(serial-shell.o)
                               0x13b0 (size before relaxing)
 .stab          0x00027b10     0x1a94 contiki-sky.a(shell.o)
                               0x2760 (size before relaxing)
 .stab          0x000295a4      0x3fc contiki-sky.a(shell-reboot.o)
                                0x954 (size before relaxing)
 .stab          0x000299a0      0x4f8 contiki-sky.a(shell-blink.o)
                                0xa50 (size before relaxing)
 .stab          0x00029e98      0x8f4 contiki-sky.a(shell-text.o)
                                0xe4c (size before relaxing)
 .stab          0x0002a78c      0xbf4 contiki-sky.a(shell-time.o)
                               0x11c4 (size before relaxing)
 .stab          0x0002b380      0x36c contiki-sky.a(shell-powertrac)
                                0x81c (size before relaxing)
 .stab          0x0002b6ec      0xdb0 contiki-sky.a(shell-sky.o)
                               0x1b0c (size before relaxing)
 .stab          0x0002c49c      0xe04 contiki-sky.a(powertrace.o)
                               0x1af4 (size before relaxing)
 .stab          0x0002d2a0      0xd80 contiki-sky.a(shell-rime.o)
                               0x1ac4 (size before relaxing)
 .stab          0x0002e020      0x7c8 contiki-sky.a(shell-rime-netc)
                               0x14ac (size before relaxing)
 .stab          0x0002e7e8      0x48c contiki-sky.a(shell-collect-v)
                                0xee8 (size before relaxing)
 .stab          0x0002ec74      0x948 contiki-sky.a(broadcast-annou)
                               0x15c0 (size before relaxing)
 .stab          0x0002f5bc      0x720 contiki-sky.a(broadcast.o)
                               0x183c (size before relaxing)
 .stab          0x0002fcdc      0x678 contiki-sky.a(channel.o)
                               0x129c (size before relaxing)
 .stab          0x00030354     0x210c contiki-sky.a(collect.o)
                               0x2c7c (size before relaxing)
 .stab          0x00032460      0x5e8 contiki-sky.a(collect-link-es)
                               0x1014 (size before relaxing)
 .stab          0x00032a48      0xffc contiki-sky.a(collect-neighbo)
                               0x1a64 (size before relaxing)
 .stab          0x00033a44      0x720 contiki-sky.a(packetqueue.o)
                                0xf84 (size before relaxing)
 .stab          0x00034164      0x9c0 contiki-sky.a(route.o)
                                0xf0c (size before relaxing)
 .stab          0x00034b24      0x7d4 contiki-sky.a(trickle.o)
                               0x1080 (size before relaxing)
 .stab          0x000352f8      0x624 contiki-sky.a(unicast.o)
                               0x129c (size before relaxing)
 .stab          0x0003591c      0x3fc contiki-sky.a(sht11-sensor.o)
                                0x948 (size before relaxing)
 .stab          0x00035d18      0x324 contiki-sky.a(light-sensor.o)
                                0x690 (size before relaxing)
 .stab          0x0003603c      0x318 contiki-sky.a(battery-sensor.)
                                0x684 (size before relaxing)
 .stab          0x00036354      0x204 contiki-sky.a(spi.o)
                                0x42c (size before relaxing)
 .stab          0x00036558      0x4f8 contiki-sky.a(sky-sensors.o)
                                0x864 (size before relaxing)
 .stab          0x00036a50      0x24c contiki-sky.a(crc16.o)
                                0x258 (size before relaxing)
 .stab          0x00036c9c      0x558 contiki-sky.a(compower.o)
                                0xd20 (size before relaxing)
 .stab          0x000371f4      0x3c0 contiki-sky.a(stimer.o)
                                0x600 (size before relaxing)
 .stab          0x000375b4      0x534 contiki-sky.a(serial-line.o)
                                0xa50 (size before relaxing)
 .stab          0x00037ae8      0x5c4 contiki-sky.a(memb.o)
                                0xaf8 (size before relaxing)
 .stab          0x000380ac      0x3fc contiki-sky.a(ringbuf.o)
                                0x63c (size before relaxing)
 .stab          0x000384a8      0x96c contiki-sky.a(rpl-nbr-policy.)
                               0x1734 (size before relaxing)
 .stab          0x00038e14     0x11dc contiki-sky.a(frame802154.o)
                               0x19c8 (size before relaxing)
 .stab          0x00039ff0      0x678 contiki-sky.a(mac-sequence.o)
                               0x17ac (size before relaxing)
 .stab          0x0003a668      0x624 contiki-sky.a(collect-view.o)
                               0x12b4 (size before relaxing)
 .stab          0x0003ac8c      0x438 contiki-sky.a(collect-view-sk)
                                0xf78 (size before relaxing)
 .stab          0x0003b0c4      0x6b4 contiki-sky.a(abc.o)
                               0x17d0 (size before relaxing)
 .stab          0x0003b778      0x6e4 contiki-sky.a(announcement.o)
                                0x984 (size before relaxing)
 .stab          0x0003be5c      0x594 contiki-sky.a(chameleon.o)
                               0x123c (size before relaxing)
 .stab          0x0003c3f0      0x738 contiki-sky.a(rime.o)
                               0x1410 (size before relaxing)
 .stab          0x0003cb28      0xbb8 contiki-sky.a(sht11.o)
                               0x10e0 (size before relaxing)
 .stab          0x0003d6e0      0xd80 contiki-sky.a(chameleon-bitop)
                               0x19f8 (size before relaxing)

.stabstr        0x00000000    0x25f3c
 *(.stabstr)
 .stabstr       0x00000000    0x25f3c udp-server.co

.stab.excl
 *(.stab.excl)

.stab.exclstr
 *(.stab.exclstr)

.stab.index
 *(.stab.index)

.stab.indexstr
 *(.stab.indexstr)

.comment
 *(.comment)

.debug
 *(.debug)

.line
 *(.line)

.debug_srcinfo
 *(.debug_srcinfo)

.debug_sfnames
 *(.debug_sfnames)

.debug_aranges  0x00000000      0x208
 *(.debug_aranges)
 .debug_aranges
                0x00000000       0x14 /usr/lib/gcc/msp430/4.6.3/mmpy-16/libgcc.a(_mulsi3.o)
 .debug_aranges
                0x00000014       0x14 /usr/lib/gcc/msp430/4.6.3/mmpy-16/libgcc.a(_udivmod16.o)
 .debug_aranges
                0x00000028       0x14 /usr/lib/gcc/msp430/4.6.3/mmpy-16/libgcc.a(_divmod16.o)
 .debug_aranges
                0x0000003c       0x14 /usr/lib/gcc/msp430/4.6.3/mmpy-16/libgcc.a(_udivmod32.o)
 .debug_aranges
                0x00000050       0x14 /usr/lib/gcc/msp430/4.6.3/mmpy-16/libgcc.a(_divmod32.o)
 .debug_aranges
                0x00000064       0x14 /usr/lib/gcc/msp430/4.6.3/../../../../msp430/lib/mmpy-16/libc.a(strchr.o)
 .debug_aranges
                0x00000078       0x14 /usr/lib/gcc/msp430/4.6.3/../../../../msp430/lib/mmpy-16/libc.a(strcmp.o)
 .debug_aranges
                0x0000008c       0x14 /usr/lib/gcc/msp430/4.6.3/../../../../msp430/lib/mmpy-16/libc.a(strncmp.o)
 .debug_aranges
                0x000000a0       0x14 /usr/lib/gcc/msp430/4.6.3/../../../../msp430/lib/mmpy-16/libc.a(memcmp.o)
 .debug_aranges
                0x000000b4       0x14 /usr/lib/gcc/msp430/4.6.3/../../../../msp430/lib/mmpy-16/libc.a(strcpy.o)
 .debug_aranges
                0x000000c8       0x14 /usr/lib/gcc/msp430/4.6.3/../../../../msp430/lib/mmpy-16/libc.a(strncpy.o)
 .debug_aranges
                0x000000dc       0x14 /usr/lib/gcc/msp430/4.6.3/../../../../msp430/lib/mmpy-16/libc.a(memcpy.o)
 .debug_aranges
                0x000000f0       0x14 /usr/lib/gcc/msp430/4.6.3/../../../../msp430/lib/mmpy-16/libc.a(memmove.o)
 .debug_aranges
                0x00000104       0x14 /usr/lib/gcc/msp430/4.6.3/../../../../msp430/lib/mmpy-16/libc.a(memset.o)
 .debug_aranges
                0x00000118       0x14 /usr/lib/gcc/msp430/4.6.3/../../../../msp430/lib/mmpy-16/libc.a(printf.o)
 .debug_aranges
                0x0000012c       0x14 /usr/lib/gcc/msp430/4.6.3/../../../../msp430/lib/mmpy-16/libc.a(sprintf.o)
 .debug_aranges
                0x00000140       0x14 /usr/lib/gcc/msp430/4.6.3/../../../../msp430/lib/mmpy-16/libc.a(vuprintf.o)
 .debug_aranges
                0x00000154       0x14 /usr/lib/gcc/msp430/4.6.3/../../../../msp430/lib/mmpy-16/libc.a(puts.o)
 .debug_aranges
                0x00000168       0x14 /usr/lib/gcc/msp430/4.6.3/../../../../msp430/lib/mmpy-16/libc.a(rand.o)
 .debug_aranges
                0x0000017c       0x14 /usr/lib/gcc/msp430/4.6.3/mmpy-16/libgcc.a(_udivmod64.o)
 .debug_aranges
                0x00000190       0x14 /usr/lib/gcc/msp430/4.6.3/mmpy-16/libcrt0.a(__watchdog_support.o)
 .debug_aranges
                0x000001a4       0x14 /usr/lib/gcc/msp430/4.6.3/mmpy-16/libcrt0.a(__init_stack.o)
 .debug_aranges
                0x000001b8       0x14 /usr/lib/gcc/msp430/4.6.3/mmpy-16/libcrt0.a(_copy_data.o)
 .debug_aranges
                0x000001cc       0x14 /usr/lib/gcc/msp430/4.6.3/mmpy-16/libcrt0.a(_clear_bss.o)
 .debug_aranges
                0x000001e0       0x14 /usr/lib/gcc/msp430/4.6.3/mmpy-16/libcrt0.a(_endless_loop__.o)
 .debug_aranges
                0x000001f4       0x14 /usr/lib/gcc/msp430/4.6.3/mmpy-16/libcrt0.a(_unexpected_.o)

.debug_pubnames
 *(.debug_pubnames)

.debug_info     0x00000000     0x1bb3
 *(.debug_info)
 .debug_info    0x00000000       0xd6 /usr/lib/gcc/msp430/4.6.3/mmpy-16/libgcc.a(_mulsi3.o)
 .debug_info    0x000000d6       0xd6 /usr/lib/gcc/msp430/4.6.3/mmpy-16/libgcc.a(_udivmod16.o)
 .debug_info    0x000001ac       0xd6 /usr/lib/gcc/msp430/4.6.3/mmpy-16/libgcc.a(_divmod16.o)
 .debug_info    0x00000282       0xd6 /usr/lib/gcc/msp430/4.6.3/mmpy-16/libgcc.a(_udivmod32.o)
 .debug_info    0x00000358       0xd6 /usr/lib/gcc/msp430/4.6.3/mmpy-16/libgcc.a(_divmod32.o)
 .debug_info    0x0000042e       0xa7 /usr/lib/gcc/msp430/4.6.3/../../../../msp430/lib/mmpy-16/libc.a(strchr.o)
 .debug_info    0x000004d5       0xa4 /usr/lib/gcc/msp430/4.6.3/../../../../msp430/lib/mmpy-16/libc.a(strcmp.o)
 .debug_info    0x00000579       0xbb /usr/lib/gcc/msp430/4.6.3/../../../../msp430/lib/mmpy-16/libc.a(strncmp.o)
 .debug_info    0x00000634       0xe8 /usr/lib/gcc/msp430/4.6.3/../../../../msp430/lib/mmpy-16/libc.a(memcmp.o)
 .debug_info    0x0000071c       0xb6 /usr/lib/gcc/msp430/4.6.3/../../../../msp430/lib/mmpy-16/libc.a(strcpy.o)
 .debug_info    0x000007d2       0xe1 /usr/lib/gcc/msp430/4.6.3/../../../../msp430/lib/mmpy-16/libc.a(strncpy.o)
 .debug_info    0x000008b3      0x113 /usr/lib/gcc/msp430/4.6.3/../../../../msp430/lib/mmpy-16/libc.a(memcpy.o)
 .debug_info    0x000009c6      0x113 /usr/lib/gcc/msp430/4.6.3/../../../../msp430/lib/mmpy-16/libc.a(memmove.o)
 .debug_info    0x00000ad9       0xfe /usr/lib/gcc/msp430/4.6.3/../../../../msp430/lib/mmpy-16/libc.a(memset.o)
 .debug_info    0x00000bd7      0x105 /usr/lib/gcc/msp430/4.6.3/../../../../msp430/lib/mmpy-16/libc.a(printf.o)
 .debug_info    0x00000cdc      0x277 /usr/lib/gcc/msp430/4.6.3/../../../../msp430/lib/mmpy-16/libc.a(sprintf.o)
 .debug_info    0x00000f53      0x565 /usr/lib/gcc/msp430/4.6.3/../../../../msp430/lib/mmpy-16/libc.a(vuprintf.o)
 .debug_info    0x000014b8       0x96 /usr/lib/gcc/msp430/4.6.3/../../../../msp430/lib/mmpy-16/libc.a(puts.o)
 .debug_info    0x0000154e      0x13f /usr/lib/gcc/msp430/4.6.3/../../../../msp430/lib/mmpy-16/libc.a(rand.o)
 .debug_info    0x0000168d       0xd6 /usr/lib/gcc/msp430/4.6.3/mmpy-16/libgcc.a(_udivmod64.o)
 .debug_info    0x00001763       0xb8 /usr/lib/gcc/msp430/4.6.3/mmpy-16/libcrt0.a(__watchdog_support.o)
 .debug_info    0x0000181b       0xb8 /usr/lib/gcc/msp430/4.6.3/mmpy-16/libcrt0.a(__init_stack.o)
 .debug_info    0x000018d3       0xb8 /usr/lib/gcc/msp430/4.6.3/mmpy-16/libcrt0.a(_copy_data.o)
 .debug_info    0x0000198b       0xb8 /usr/lib/gcc/msp430/4.6.3/mmpy-16/libcrt0.a(_clear_bss.o)
 .debug_info    0x00001a43       0xb8 /usr/lib/gcc/msp430/4.6.3/mmpy-16/libcrt0.a(_endless_loop__.o)
 .debug_info    0x00001afb       0xb8 /usr/lib/gcc/msp430/4.6.3/mmpy-16/libcrt0.a(_unexpected_.o)
 *(.gnu.linkonce.wi.*)

.debug_abbrev   0x00000000      0xac6
 *(.debug_abbrev)
 .debug_abbrev  0x00000000       0x14 /usr/lib/gcc/msp430/4.6.3/mmpy-16/libgcc.a(_mulsi3.o)
 .debug_abbrev  0x00000014       0x14 /usr/lib/gcc/msp430/4.6.3/mmpy-16/libgcc.a(_udivmod16.o)
 .debug_abbrev  0x00000028       0x14 /usr/lib/gcc/msp430/4.6.3/mmpy-16/libgcc.a(_divmod16.o)
 .debug_abbrev  0x0000003c       0x14 /usr/lib/gcc/msp430/4.6.3/mmpy-16/libgcc.a(_udivmod32.o)
 .debug_abbrev  0x00000050       0x14 /usr/lib/gcc/msp430/4.6.3/mmpy-16/libgcc.a(_divmod32.o)
 .debug_abbrev  0x00000064       0x6f /usr/lib/gcc/msp430/4.6.3/../../../../msp430/lib/mmpy-16/libc.a(strchr.o)
 .debug_abbrev  0x000000d3       0x60 /usr/lib/gcc/msp430/4.6.3/../../../../msp430/lib/mmpy-16/libc.a(strcmp.o)
 .debug_abbrev  0x00000133       0x7c /usr/lib/gcc/msp430/4.6.3/../../../../msp430/lib/mmpy-16/libc.a(strncmp.o)
 .debug_abbrev  0x000001af       0x9b /usr/lib/gcc/msp430/4.6.3/../../../../msp430/lib/mmpy-16/libc.a(memcmp.o)
 .debug_abbrev  0x0000024a       0x7e /usr/lib/gcc/msp430/4.6.3/../../../../msp430/lib/mmpy-16/libc.a(strcpy.o)
 .debug_abbrev  0x000002c8       0x94 /usr/lib/gcc/msp430/4.6.3/../../../../msp430/lib/mmpy-16/libc.a(strncpy.o)
 .debug_abbrev  0x0000035c       0x97 /usr/lib/gcc/msp430/4.6.3/../../../../msp430/lib/mmpy-16/libc.a(memcpy.o)
 .debug_abbrev  0x000003f3       0x97 /usr/lib/gcc/msp430/4.6.3/../../../../msp430/lib/mmpy-16/libc.a(memmove.o)
 .debug_abbrev  0x0000048a       0x9c /usr/lib/gcc/msp430/4.6.3/../../../../msp430/lib/mmpy-16/libc.a(memset.o)
 .debug_abbrev  0x00000526       0xd0 /usr/lib/gcc/msp430/4.6.3/../../../../msp430/lib/mmpy-16/libc.a(printf.o)
 .debug_abbrev  0x000005f6      0x105 /usr/lib/gcc/msp430/4.6.3/../../../../msp430/lib/mmpy-16/libc.a(sprintf.o)
 .debug_abbrev  0x000006fb      0x1ef /usr/lib/gcc/msp430/4.6.3/../../../../msp430/lib/mmpy-16/libc.a(vuprintf.o)
 .debug_abbrev  0x000008ea       0x60 /usr/lib/gcc/msp430/4.6.3/../../../../msp430/lib/mmpy-16/libc.a(puts.o)
 .debug_abbrev  0x0000094a       0xf0 /usr/lib/gcc/msp430/4.6.3/../../../../msp430/lib/mmpy-16/libc.a(rand.o)
 .debug_abbrev  0x00000a3a       0x14 /usr/lib/gcc/msp430/4.6.3/mmpy-16/libgcc.a(_udivmod64.o)
 .debug_abbrev  0x00000a4e       0x14 /usr/lib/gcc/msp430/4.6.3/mmpy-16/libcrt0.a(__watchdog_support.o)
 .debug_abbrev  0x00000a62       0x14 /usr/lib/gcc/msp430/4.6.3/mmpy-16/libcrt0.a(__init_stack.o)
 .debug_abbrev  0x00000a76       0x14 /usr/lib/gcc/msp430/4.6.3/mmpy-16/libcrt0.a(_copy_data.o)
 .debug_abbrev  0x00000a8a       0x14 /usr/lib/gcc/msp430/4.6.3/mmpy-16/libcrt0.a(_clear_bss.o)
 .debug_abbrev  0x00000a9e       0x14 /usr/lib/gcc/msp430/4.6.3/mmpy-16/libcrt0.a(_endless_loop__.o)
 .debug_abbrev  0x00000ab2       0x14 /usr/lib/gcc/msp430/4.6.3/mmpy-16/libcrt0.a(_unexpected_.o)

.debug_line     0x00000000     0x109d
 *(.debug_line)
 .debug_line    0x00000000       0xa3 /usr/lib/gcc/msp430/4.6.3/mmpy-16/libgcc.a(_mulsi3.o)
 .debug_line    0x000000a3       0x9c /usr/lib/gcc/msp430/4.6.3/mmpy-16/libgcc.a(_udivmod16.o)
 .debug_line    0x0000013f       0xa7 /usr/lib/gcc/msp430/4.6.3/mmpy-16/libgcc.a(_divmod16.o)
 .debug_line    0x000001e6       0xab /usr/lib/gcc/msp430/4.6.3/mmpy-16/libgcc.a(_udivmod32.o)
 .debug_line    0x00000291       0xb0 /usr/lib/gcc/msp430/4.6.3/mmpy-16/libgcc.a(_divmod32.o)
 .debug_line    0x00000341       0x44 /usr/lib/gcc/msp430/4.6.3/../../../../msp430/lib/mmpy-16/libc.a(strchr.o)
 .debug_line    0x00000385       0x49 /usr/lib/gcc/msp430/4.6.3/../../../../msp430/lib/mmpy-16/libc.a(strcmp.o)
 .debug_line    0x000003ce       0x75 /usr/lib/gcc/msp430/4.6.3/../../../../msp430/lib/mmpy-16/libc.a(strncmp.o)
 .debug_line    0x00000443       0x73 /usr/lib/gcc/msp430/4.6.3/../../../../msp430/lib/mmpy-16/libc.a(memcmp.o)
 .debug_line    0x000004b6       0x4d /usr/lib/gcc/msp430/4.6.3/../../../../msp430/lib/mmpy-16/libc.a(strcpy.o)
 .debug_line    0x00000503       0x78 /usr/lib/gcc/msp430/4.6.3/../../../../msp430/lib/mmpy-16/libc.a(strncpy.o)
 .debug_line    0x0000057b       0xe9 /usr/lib/gcc/msp430/4.6.3/../../../../msp430/lib/mmpy-16/libc.a(memcpy.o)
 .debug_line    0x00000664       0xe9 /usr/lib/gcc/msp430/4.6.3/../../../../msp430/lib/mmpy-16/libc.a(memmove.o)
 .debug_line    0x0000074d       0xc8 /usr/lib/gcc/msp430/4.6.3/../../../../msp430/lib/mmpy-16/libc.a(memset.o)
 .debug_line    0x00000815       0x72 /usr/lib/gcc/msp430/4.6.3/../../../../msp430/lib/mmpy-16/libc.a(printf.o)
 .debug_line    0x00000887       0x9c /usr/lib/gcc/msp430/4.6.3/../../../../msp430/lib/mmpy-16/libc.a(sprintf.o)
 .debug_line    0x00000923      0x2d2 /usr/lib/gcc/msp430/4.6.3/../../../../msp430/lib/mmpy-16/libc.a(vuprintf.o)
 .debug_line    0x00000bf5       0x4d /usr/lib/gcc/msp430/4.6.3/../../../../msp430/lib/mmpy-16/libc.a(puts.o)
 .debug_line    0x00000c42       0x4f /usr/lib/gcc/msp430/4.6.3/../../../../msp430/lib/mmpy-16/libc.a(rand.o)
 .debug_line    0x00000c91       0xf1 /usr/lib/gcc/msp430/4.6.3/mmpy-16/libgcc.a(_udivmod64.o)
 .debug_line    0x00000d82       0x84 /usr/lib/gcc/msp430/4.6.3/mmpy-16/libcrt0.a(__watchdog_support.o)
 .debug_line    0x00000e06       0x82 /usr/lib/gcc/msp430/4.6.3/mmpy-16/libcrt0.a(__init_stack.o)
 .debug_line    0x00000e88       0x88 /usr/lib/gcc/msp430/4.6.3/mmpy-16/libcrt0.a(_copy_data.o)
 .debug_line    0x00000f10       0x88 /usr/lib/gcc/msp430/4.6.3/mmpy-16/libcrt0.a(_clear_bss.o)
 .debug_line    0x00000f98       0x83 /usr/lib/gcc/msp430/4.6.3/mmpy-16/libcrt0.a(_endless_loop__.o)
 .debug_line    0x0000101b       0x82 /usr/lib/gcc/msp430/4.6.3/mmpy-16/libcrt0.a(_unexpected_.o)

.debug_frame    0x00000000      0x30a
 *(.debug_frame)
 .debug_frame   0x00000000       0x1e /usr/lib/gcc/msp430/4.6.3/../../../../msp430/lib/mmpy-16/libc.a(strchr.o)
 .debug_frame   0x0000001e       0x1e /usr/lib/gcc/msp430/4.6.3/../../../../msp430/lib/mmpy-16/libc.a(strcmp.o)
 .debug_frame   0x0000003c       0x24 /usr/lib/gcc/msp430/4.6.3/../../../../msp430/lib/mmpy-16/libc.a(strncmp.o)
 .debug_frame   0x00000060       0x24 /usr/lib/gcc/msp430/4.6.3/../../../../msp430/lib/mmpy-16/libc.a(memcmp.o)
 .debug_frame   0x00000084       0x1e /usr/lib/gcc/msp430/4.6.3/../../../../msp430/lib/mmpy-16/libc.a(strcpy.o)
 .debug_frame   0x000000a2       0x24 /usr/lib/gcc/msp430/4.6.3/../../../../msp430/lib/mmpy-16/libc.a(strncpy.o)
 .debug_frame   0x000000c6       0x38 /usr/lib/gcc/msp430/4.6.3/../../../../msp430/lib/mmpy-16/libc.a(memcpy.o)
 .debug_frame   0x000000fe       0x38 /usr/lib/gcc/msp430/4.6.3/../../../../msp430/lib/mmpy-16/libc.a(memmove.o)
 .debug_frame   0x00000136       0x32 /usr/lib/gcc/msp430/4.6.3/../../../../msp430/lib/mmpy-16/libc.a(memset.o)
 .debug_frame   0x00000168       0x2a /usr/lib/gcc/msp430/4.6.3/../../../../msp430/lib/mmpy-16/libc.a(printf.o)
 .debug_frame   0x00000192       0x68 /usr/lib/gcc/msp430/4.6.3/../../../../msp430/lib/mmpy-16/libc.a(sprintf.o)
 .debug_frame   0x000001fa       0xb0 /usr/lib/gcc/msp430/4.6.3/../../../../msp430/lib/mmpy-16/libc.a(vuprintf.o)
 .debug_frame   0x000002aa       0x24 /usr/lib/gcc/msp430/4.6.3/../../../../msp430/lib/mmpy-16/libc.a(puts.o)
 .debug_frame   0x000002ce       0x3c /usr/lib/gcc/msp430/4.6.3/../../../../msp430/lib/mmpy-16/libc.a(rand.o)

.debug_str      0x00000000      0x4cc
 *(.debug_str)
 .debug_str     0x00000000       0xbb /usr/lib/gcc/msp430/4.6.3/../../../../msp430/lib/mmpy-16/libc.a(strchr.o)
                                 0xf4 (size before relaxing)
 .debug_str     0x000000bb       0x19 /usr/lib/gcc/msp430/4.6.3/../../../../msp430/lib/mmpy-16/libc.a(strcmp.o)
                                 0xf4 (size before relaxing)
 .debug_str     0x000000d4       0x22 /usr/lib/gcc/msp430/4.6.3/../../../../msp430/lib/mmpy-16/libc.a(strncmp.o)
                                 0xfd (size before relaxing)
 .debug_str     0x000000f6       0x19 /usr/lib/gcc/msp430/4.6.3/../../../../msp430/lib/mmpy-16/libc.a(memcmp.o)
                                 0xfb (size before relaxing)
 .debug_str     0x0000010f       0x23 /usr/lib/gcc/msp430/4.6.3/../../../../msp430/lib/mmpy-16/libc.a(strcpy.o)
                                 0xfe (size before relaxing)
 .debug_str     0x00000132       0x1b /usr/lib/gcc/msp430/4.6.3/../../../../msp430/lib/mmpy-16/libc.a(strncpy.o)
                                 0xfd (size before relaxing)
 .debug_str     0x0000014d       0x34 /usr/lib/gcc/msp430/4.6.3/../../../../msp430/lib/mmpy-16/libc.a(memcpy.o)
                                0x116 (size before relaxing)
 .debug_str     0x00000181       0x1b /usr/lib/gcc/msp430/4.6.3/../../../../msp430/lib/mmpy-16/libc.a(memmove.o)
                                0x118 (size before relaxing)
 .debug_str     0x0000019c       0x26 /usr/lib/gcc/msp430/4.6.3/../../../../msp430/lib/mmpy-16/libc.a(memset.o)
                                0x114 (size before relaxing)
 .debug_str     0x000001c2       0x40 /usr/lib/gcc/msp430/4.6.3/../../../../msp430/lib/mmpy-16/libc.a(printf.o)
                                0x12a (size before relaxing)
 .debug_str     0x00000202       0x6e /usr/lib/gcc/msp430/4.6.3/../../../../msp430/lib/mmpy-16/libc.a(sprintf.o)
                                0x18f (size before relaxing)
 .debug_str     0x00000270      0x218 /usr/lib/gcc/msp430/4.6.3/../../../../msp430/lib/mmpy-16/libc.a(vuprintf.o)
                                0x375 (size before relaxing)
 .debug_str     0x00000488       0x15 /usr/lib/gcc/msp430/4.6.3/../../../../msp430/lib/mmpy-16/libc.a(puts.o)
                                 0xf0 (size before relaxing)
 .debug_str     0x0000049d       0x2f /usr/lib/gcc/msp430/4.6.3/../../../../msp430/lib/mmpy-16/libc.a(rand.o)
                                0x10f (size before relaxing)

.debug_loc      0x00000000      0xe4d
 *(.debug_loc)
 .debug_loc     0x00000000        0xb /usr/lib/gcc/msp430/4.6.3/../../../../msp430/lib/mmpy-16/libc.a(strchr.o)
 .debug_loc     0x0000000b       0x24 /usr/lib/gcc/msp430/4.6.3/../../../../msp430/lib/mmpy-16/libc.a(strcmp.o)
 .debug_loc     0x0000002f       0x38 /usr/lib/gcc/msp430/4.6.3/../../../../msp430/lib/mmpy-16/libc.a(strncmp.o)
 .debug_loc     0x00000067       0x5e /usr/lib/gcc/msp430/4.6.3/../../../../msp430/lib/mmpy-16/libc.a(memcmp.o)
 .debug_loc     0x000000c5       0x12 /usr/lib/gcc/msp430/4.6.3/../../../../msp430/lib/mmpy-16/libc.a(strcpy.o)
 .debug_loc     0x000000d7       0x45 /usr/lib/gcc/msp430/4.6.3/../../../../msp430/lib/mmpy-16/libc.a(strncpy.o)
 .debug_loc     0x0000011c      0x1e9 /usr/lib/gcc/msp430/4.6.3/../../../../msp430/lib/mmpy-16/libc.a(memcpy.o)
 .debug_loc     0x00000305      0x1e9 /usr/lib/gcc/msp430/4.6.3/../../../../msp430/lib/mmpy-16/libc.a(memmove.o)
 .debug_loc     0x000004ee       0xdb /usr/lib/gcc/msp430/4.6.3/../../../../msp430/lib/mmpy-16/libc.a(memset.o)
 .debug_loc     0x000005c9       0x38 /usr/lib/gcc/msp430/4.6.3/../../../../msp430/lib/mmpy-16/libc.a(printf.o)
 .debug_loc     0x00000601       0xeb /usr/lib/gcc/msp430/4.6.3/../../../../msp430/lib/mmpy-16/libc.a(sprintf.o)
 .debug_loc     0x000006ec      0x70c /usr/lib/gcc/msp430/4.6.3/../../../../msp430/lib/mmpy-16/libc.a(vuprintf.o)
 .debug_loc     0x00000df8       0x26 /usr/lib/gcc/msp430/4.6.3/../../../../msp430/lib/mmpy-16/libc.a(puts.o)
 .debug_loc     0x00000e1e       0x2f /usr/lib/gcc/msp430/4.6.3/../../../../msp430/lib/mmpy-16/libc.a(rand.o)

.debug_macinfo
 *(.debug_macinfo)

.debug_pubtypes
 *(.debug_pubtypes)

.debug_ranges   0x00000000       0x18
 *(.debug_ranges)
 .debug_ranges  0x00000000       0x18 /usr/lib/gcc/msp430/4.6.3/../../../../msp430/lib/mmpy-16/libc.a(vuprintf.o)
                0x00003900                PROVIDE (__stack, (ORIGIN (ram) + 0x2800))
                0x0001512c                PROVIDE (__data_start_rom, _etext)
                0x000154e2                PROVIDE (__data_end_rom, (_etext + SIZEOF (.data)))
OUTPUT(udp-server.sky elf32-msp430)
