Archive member included because of file (symbol)

contiki-sky.a(contiki-sky-pla)
                              obj_sky/contiki-sky-main.o (init_platform)
contiki-sky.a(button-sensor.o)
                              udp-server.co (button_sensor)
contiki-sky.a(ds2411.o)       obj_sky/contiki-sky-main.o (ds2411_init)
contiki-sky.a(xmem.o)         obj_sky/contiki-sky-main.o (xmem_init)
contiki-sky.a(node-id.o)      obj_sky/contiki-sky-main.o (node_id_restore)
contiki-sky.a(sensors.o)      udp-server.co (sensors_event)
contiki-sky.a(cc2420.o)       obj_sky/contiki-sky-main.o (cc2420_set_pan_addr)
contiki-sky.a(cc2420-arch.o)  contiki-sky.a(cc2420.o) (cc2420_arch_init)
contiki-sky.a(uart1.o)        obj_sky/contiki-sky-main.o (uart1_active)
contiki-sky.a(uart1-putchar.o)
                              udp-server.co (putchar)
contiki-sky.a(msp430.o)       contiki-sky.a(uart1.o) (msp430_add_lpm_req)
contiki-sky.a(clock.o)        obj_sky/contiki-sky-main.o (clock_init)
contiki-sky.a(leds.o)         obj_sky/contiki-sky-main.o (leds_init)
contiki-sky.a(leds-arch.o)    contiki-sky.a(leds.o) (leds_arch_init)
contiki-sky.a(watchdog.o)     obj_sky/contiki-sky-main.o (watchdog_start)
contiki-sky.a(rtimer-arch.o)  obj_sky/contiki-sky-main.o (rtimer_arch_now)
contiki-sky.a(autostart.o)    obj_sky/contiki-sky-main.o (autostart_start)
contiki-sky.a(ctimer.o)       obj_sky/contiki-sky-main.o (ctimer_init)
contiki-sky.a(energest.o)     obj_sky/contiki-sky-main.o (energest_init)
contiki-sky.a(etimer.o)       contiki-sky.a(clock.o) (etimer_request_poll)
contiki-sky.a(process.o)      udp-server.co (process_current)
contiki-sky.a(rtimer.o)       obj_sky/contiki-sky-main.o (rtimer_init)
contiki-sky.a(timer.o)        obj_sky/contiki-sky-main.o (timer_set)
contiki-sky.a(serial-line.o)  obj_sky/collect-common.o (serial_line_event_message)
contiki-sky.a(list.o)         contiki-sky.a(ctimer.o) (list_init)
contiki-sky.a(random.o)       obj_sky/contiki-sky-main.o (random_init)
contiki-sky.a(ringbuf.o)      contiki-sky.a(serial-line.o) (ringbuf_init)
contiki-sky.a(sicslowpan.o)   obj_sky/contiki-sky-main.o (sicslowpan_driver)
contiki-sky.a(uip6.o)         udp-server.co (uip_aligned_buf)
contiki-sky.a(uip-ds6.o)      contiki-sky.a(uip6.o) (uip_ds6_is_addr_onlink)
contiki-sky.a(uip-ds6-nbr.o)  contiki-sky.a(uip-ds6.o) (uip_ds6_neighbors_init)
contiki-sky.a(uip-ds6-route.o)
                              contiki-sky.a(uip-ds6.o) (uip_ds6_route_init)
contiki-sky.a(uip-icmp6.o)    contiki-sky.a(uip6.o) (uip_icmp6_input)
contiki-sky.a(uip-nd6.o)      contiki-sky.a(uip6.o) (uip_nd6_init)
contiki-sky.a(tcpip.o)        contiki-sky.a(sicslowpan.o) (tcpip_set_outputfunc)
contiki-sky.a(uip-debug.o)    udp-server.co (uip_debug_ipaddr_print)
contiki-sky.a(rpl.o)          contiki-sky.a(uip-ds6-nbr.o) (rpl_link_neighbor_callback)
contiki-sky.a(rpl-dag.o)      contiki-sky.a(rpl.o) (rpl_dag_init)
contiki-sky.a(rpl-ext-header.)
                              contiki-sky.a(uip6.o) (rpl_verify_hbh_header)
contiki-sky.a(rpl-icmp6.o)    contiki-sky.a(rpl-dag.o) (rpl_icmp6_update_nbr_table)
contiki-sky.a(rpl-mrhof.o)    contiki-sky.a(rpl-dag.o) (rpl_mrhof)
contiki-sky.a(rpl-timers.o)   contiki-sky.a(rpl.o) (rpl_reset_periodic_timer)
contiki-sky.a(csma.o)         udp-server.co (csma_driver)
contiki-sky.a(framer-802154.o)
                              contiki-sky.a(sicslowpan.o) (framer_802154)
contiki-sky.a(mac.o)          contiki-sky.a(csma.o) (mac_call_sent_callback)
contiki-sky.a(linkaddr.o)     obj_sky/contiki-sky-main.o (linkaddr_copy)
contiki-sky.a(link-stats.o)   contiki-sky.a(rpl-dag.o) (link_stats_from_lladdr)
contiki-sky.a(nbr-table.o)    contiki-sky.a(uip-ds6-nbr.o) (nbr_table_register)
contiki-sky.a(packetbuf.o)    contiki-sky.a(framer-802154.o) (packetbuf_hdrreduce)
contiki-sky.a(queuebuf.o)     obj_sky/contiki-sky-main.o (queuebuf_init)
contiki-sky.a(contikimac.o)   obj_sky/collect-common.o (contikimac_driver)
contiki-sky.a(nullsec.o)      obj_sky/contiki-sky-main.o (nullsec_driver)
contiki-sky.a(spi.o)          contiki-sky.a(xmem.o) (spi_init)
contiki-sky.a(compower.o)     contiki-sky.a(contikimac.o) (compower_accumulate)
contiki-sky.a(stimer.o)       contiki-sky.a(uip-ds6.o) (stimer_set)
contiki-sky.a(memb.o)         contiki-sky.a(uip-ds6-route.o) (memb_init)
contiki-sky.a(rpl-nbr-policy.)
                              contiki-sky.a(nbr-table.o) (rpl_nbr_policy_find_removable)
contiki-sky.a(frame802154.o)  contiki-sky.a(framer-802154.o) (frame802154_get_pan_id)
contiki-sky.a(mac-sequence.o)
                              contiki-sky.a(contikimac.o) (mac_sequence_is_duplicate)
/usr/lib/gcc/msp430/4.6.3/mmpy-16/libgcc.a(_mulsi3.o)
                              contiki-sky.a(rpl.o) (__mulsi3)
/usr/lib/gcc/msp430/4.6.3/mmpy-16/libgcc.a(_udivmod16.o)
                              contiki-sky.a(rpl-dag.o) (__udivhi3)
/usr/lib/gcc/msp430/4.6.3/mmpy-16/libgcc.a(_divmod16.o)
                              contiki-sky.a(sicslowpan.o) (__divhi3)
/usr/lib/gcc/msp430/4.6.3/mmpy-16/libgcc.a(_udivmod32.o)
                              obj_sky/contiki-sky-main.o (__udivsi3)
/usr/lib/gcc/msp430/4.6.3/mmpy-16/libgcc.a(_divmod32.o)
                              contiki-sky.a(link-stats.o) (__divsi3)
/usr/lib/gcc/msp430/4.6.3/../../../../msp430/lib/mmpy-16/libc.a(strncmp.o)
                              obj_sky/collect-common.o (strncmp)
/usr/lib/gcc/msp430/4.6.3/../../../../msp430/lib/mmpy-16/libc.a(memcmp.o)
                              contiki-sky.a(sicslowpan.o) (memcmp)
/usr/lib/gcc/msp430/4.6.3/../../../../msp430/lib/mmpy-16/libc.a(memcpy.o)
                              obj_sky/contiki-sky-main.o (memcpy)
/usr/lib/gcc/msp430/4.6.3/../../../../msp430/lib/mmpy-16/libc.a(memmove.o)
                              contiki-sky.a(sicslowpan.o) (memmove)
/usr/lib/gcc/msp430/4.6.3/../../../../msp430/lib/mmpy-16/libc.a(memset.o)
                              obj_sky/contiki-sky-main.o (memset)
/usr/lib/gcc/msp430/4.6.3/../../../../msp430/lib/mmpy-16/libc.a(printf.o)
                              udp-server.co (printf)
/usr/lib/gcc/msp430/4.6.3/../../../../msp430/lib/mmpy-16/libc.a(vuprintf.o)
                              /usr/lib/gcc/msp430/4.6.3/../../../../msp430/lib/mmpy-16/libc.a(printf.o) (vuprintf)
/usr/lib/gcc/msp430/4.6.3/../../../../msp430/lib/mmpy-16/libc.a(puts.o)
                              udp-server.co (puts)
/usr/lib/gcc/msp430/4.6.3/../../../../msp430/lib/mmpy-16/libc.a(rand.o)
                              contiki-sky.a(random.o) (rand)
/usr/lib/gcc/msp430/4.6.3/mmpy-16/libgcc.a(_udivmod64.o)
                              /usr/lib/gcc/msp430/4.6.3/../../../../msp430/lib/mmpy-16/libc.a(vuprintf.o) (__udivdi3)
/usr/lib/gcc/msp430/4.6.3/mmpy-16/libcrt0.a(_reset_vector__.o)
                              (_reset_vector__)
/usr/lib/gcc/msp430/4.6.3/mmpy-16/libcrt0.a(__watchdog_support.o)
                              /usr/lib/gcc/msp430/4.6.3/mmpy-16/libcrt0.a(_reset_vector__.o) (__watchdog_support)
/usr/lib/gcc/msp430/4.6.3/mmpy-16/libcrt0.a(__init_stack.o)
                              /usr/lib/gcc/msp430/4.6.3/mmpy-16/libcrt0.a(_reset_vector__.o) (__init_stack)
/usr/lib/gcc/msp430/4.6.3/mmpy-16/libcrt0.a(__low_level_init.o)
                              /usr/lib/gcc/msp430/4.6.3/mmpy-16/libcrt0.a(_reset_vector__.o) (__low_level_init)
/usr/lib/gcc/msp430/4.6.3/mmpy-16/libcrt0.a(_copy_data.o)
                              /usr/lib/gcc/msp430/4.6.3/mmpy-16/libcrt0.a(_reset_vector__.o) (__do_copy_data)
/usr/lib/gcc/msp430/4.6.3/mmpy-16/libcrt0.a(_clear_bss.o)
                              /usr/lib/gcc/msp430/4.6.3/mmpy-16/libcrt0.a(_reset_vector__.o) (__do_clear_bss)
/usr/lib/gcc/msp430/4.6.3/mmpy-16/libcrt0.a(__stop_progExec__.o)
                              /usr/lib/gcc/msp430/4.6.3/mmpy-16/libcrt0.a(_reset_vector__.o) (__stop_progExec__)
/usr/lib/gcc/msp430/4.6.3/mmpy-16/libcrt0.a(_endless_loop__.o)
                              /usr/lib/gcc/msp430/4.6.3/mmpy-16/libcrt0.a(_reset_vector__.o) (_endless_loop__)
/usr/lib/gcc/msp430/4.6.3/mmpy-16/libcrt0.a(_unexpected_.o)
                              /usr/lib/gcc/msp430/4.6.3/mmpy-16/crt0ivtbl16.o (_unexpected_)

Allocating common symbols
Common symbol       size              file

compower_idle_activity
                    0x8               contiki-sky.a(compower.o)
energest_total_time
                    0x30              contiki-sky.a(energest.o)
uip_ds6_timer_ra    0x8               contiki-sky.a(uip-ds6.o)
cc2420_last_rssi    0x1               contiki-sky.a(cc2420.o)
uip_ds6_if          0xec              contiki-sky.a(uip-ds6.o)
uip_ds6_netif_addr_list_offset
                    0x1               contiki-sky.a(uip-ds6.o)
uip_len             0x2               contiki-sky.a(uip6.o)
energest_total_count
                    0x2               contiki-sky.a(energest.o)
cc2420_sfd_start_time
                    0x2               contiki-sky.a(cc2420.o)
cc2420_time_of_departure
                    0x2               contiki-sky.a(cc2420.o)
cc2420_time_of_arrival
                    0x2               contiki-sky.a(cc2420.o)
uip_ds6_addr_size   0x1               contiki-sky.a(uip-ds6.o)
uip_sappdata        0x2               contiki-sky.a(uip6.o)
energest_current_mode
                    0xc               contiki-sky.a(energest.o)
packetbuf_addrs     0x10              contiki-sky.a(packetbuf.o)
uip_acc32           0x4               contiki-sky.a(uip6.o)
uip_ds6_prefix_list
                    0x5a              contiki-sky.a(uip-ds6.o)
process_maxevents   0x1               contiki-sky.a(process.o)
uip_lladdr          0x8               contiki-sky.a(uip6.o)
uip_aligned_buf     0xf0              contiki-sky.a(uip6.o)
uip_flags           0x1               contiki-sky.a(uip6.o)
periodic_timer      0x14              contiki-sky.a(link-stats.o)
uip_ds6_timer_periodic
                    0xc               contiki-sky.a(uip-ds6.o)
uip_next_hdr        0x2               contiki-sky.a(uip6.o)
cc2420_last_correlation
                    0x1               contiki-sky.a(cc2420.o)
linkaddr_node_addr  0x8               contiki-sky.a(linkaddr.o)
default_instance    0x2               contiki-sky.a(rpl-dag.o)
cc2420_authority_level_of_sender
                    0x2               contiki-sky.a(cc2420.o)
uip_udp_conn        0x2               contiki-sky.a(uip6.o)
packetbuf_attrs     0x1e              contiki-sky.a(packetbuf.o)
msp430_dco_required
                    0x2               contiki-sky.a(msp430.o)
cc2420_sfd_counter  0x1               contiki-sky.a(cc2420.o)
instance_table      0xfe              contiki-sky.a(rpl-dag.o)
uip_appdata         0x2               contiki-sky.a(uip6.o)
uip_conn            0x2               contiki-sky.a(uip6.o)
tcpip_event         0x1               contiki-sky.a(tcpip.o)
uip_conns           0xb0              contiki-sky.a(uip6.o)
uip_listenports     0x10              contiki-sky.a(uip6.o)
energest_current_time
                    0x18              contiki-sky.a(energest.o)
sensors_flags       0x2               contiki-sky.a(contiki-sky-pla)
serial_line_event_message
                    0x1               contiki-sky.a(serial-line.o)
cc2420_sfd_end_time
                    0x2               contiki-sky.a(cc2420.o)
sensors_event       0x1               contiki-sky.a(sensors.o)
ds2411_id           0x8               contiki-sky.a(ds2411.o)
uip_slen            0x2               contiki-sky.a(uip6.o)
uip_udp_conns       0x138             contiki-sky.a(uip6.o)

Discarded input sections

 .data          0x00000000        0x0 /usr/lib/gcc/msp430/4.6.3/mmpy-16/crt0ivtbl16.o
 .bss           0x00000000        0x0 /usr/lib/gcc/msp430/4.6.3/mmpy-16/crt0ivtbl16.o
 .text.crt0     0x00000000        0x0 /usr/lib/gcc/msp430/4.6.3/mmpy-16/crt0ivtbl16.o
 .text          0x00000000        0x0 udp-server.co
 .text.collect_common_set_sink
                0x00000000        0x2 udp-server.co
 .text.collect_common_net_print
                0x00000000        0x2 udp-server.co
 .text.collect_common_send
                0x00000000        0x2 udp-server.co
 .text.collect_common_net_init
                0x00000000        0xe udp-server.co
 .text          0x00000000        0x0 obj_sky/collect-common.o
 .data          0x00000000        0xc obj_sky/collect-common.o
 .text.process_thread_collect_common_process
                0x00000000      0x1d4 obj_sky/collect-common.o
 .text.collect_common_set_send_active
                0x00000000        0x6 obj_sky/collect-common.o
 .text          0x00000000        0x0 obj_sky/contiki-sky-main.o
 .data          0x00000000        0x0 obj_sky/contiki-sky-main.o
 .text.uip_log  0x00000000        0x6 obj_sky/contiki-sky-main.o
 .text          0x00000000        0x0 contiki-sky.a(contiki-sky-pla)
 .bss           0x00000000        0x0 contiki-sky.a(contiki-sky-pla)
 .text          0x00000000        0x0 contiki-sky.a(button-sensor.o)
 .data          0x00000000        0x0 contiki-sky.a(button-sensor.o)
 .text          0x00000000        0x0 contiki-sky.a(ds2411.o)
 .data          0x00000000        0x0 contiki-sky.a(ds2411.o)
 .bss           0x00000000        0x0 contiki-sky.a(ds2411.o)
 .text          0x00000000        0x0 contiki-sky.a(xmem.o)
 .data          0x00000000        0x0 contiki-sky.a(xmem.o)
 .bss           0x00000000        0x0 contiki-sky.a(xmem.o)
 .text.write_enable
                0x00000000       0x2a contiki-sky.a(xmem.o)
 .text.xmem_pwrite
                0x00000000      0x150 contiki-sky.a(xmem.o)
 .text.xmem_erase
                0x00000000       0xae contiki-sky.a(xmem.o)
 .text          0x00000000        0x0 contiki-sky.a(node-id.o)
 .data          0x00000000        0x0 contiki-sky.a(node-id.o)
 .text.node_id_burn
                0x00000000       0x36 contiki-sky.a(node-id.o)
 .text          0x00000000        0x0 contiki-sky.a(sensors.o)
 .text.sensors_first
                0x00000000        0x6 contiki-sky.a(sensors.o)
 .text.sensors_next
                0x00000000       0x2c contiki-sky.a(sensors.o)
 .text.sensors_find
                0x00000000       0x4e contiki-sky.a(sensors.o)
 .text          0x00000000        0x0 contiki-sky.a(cc2420.o)
 .text.cc2420_get_channel
                0x00000000        0x6 contiki-sky.a(cc2420.o)
 .text          0x00000000        0x0 contiki-sky.a(cc2420-arch.o)
 .data          0x00000000        0x0 contiki-sky.a(cc2420-arch.o)
 .bss           0x00000000        0x0 contiki-sky.a(cc2420-arch.o)
 .text          0x00000000        0x0 contiki-sky.a(uart1.o)
 .data          0x00000000        0x0 contiki-sky.a(uart1.o)
 .text.handle_rxdma_timer
                0x00000000       0x3a contiki-sky.a(uart1.o)
 .text.uart1_set_input
                0x00000000       0x20 contiki-sky.a(uart1.o)
 .text          0x00000000        0x0 contiki-sky.a(uart1-putchar.o)
 .data          0x00000000        0x0 contiki-sky.a(uart1-putchar.o)
 .bss           0x00000000        0x0 contiki-sky.a(uart1-putchar.o)
 .text          0x00000000        0x0 contiki-sky.a(msp430.o)
 .bss           0x00000000        0x0 contiki-sky.a(msp430.o)
 .text.msp430_remove_lpm_req
                0x00000000        0xc contiki-sky.a(msp430.o)
 .text.sbrk     0x00000000       0x5a contiki-sky.a(msp430.o)
 .text          0x00000000        0x0 contiki-sky.a(clock.o)
 .data          0x00000000        0x0 contiki-sky.a(clock.o)
 .text.clock_set
                0x00000000       0x16 contiki-sky.a(clock.o)
 .text.clock_fine_max
                0x00000000        0x6 contiki-sky.a(clock.o)
 .text.clock_fine
                0x00000000        0xc contiki-sky.a(clock.o)
 .text.clock_wait
                0x00000000       0x34 contiki-sky.a(clock.o)
 .text.clock_set_seconds
                0x00000000       0x1c contiki-sky.a(clock.o)
 .text.clock_counter
                0x00000000        0xe contiki-sky.a(clock.o)
 .text          0x00000000        0x0 contiki-sky.a(leds.o)
 .data          0x00000000        0x0 contiki-sky.a(leds.o)
 .text.leds_get
                0x00000000        0x6 contiki-sky.a(leds.o)
 .text.leds_set
                0x00000000        0x6 contiki-sky.a(leds.o)
 .text          0x00000000        0x0 contiki-sky.a(leds-arch.o)
 .data          0x00000000        0x0 contiki-sky.a(leds-arch.o)
 .bss           0x00000000        0x0 contiki-sky.a(leds-arch.o)
 .text.leds_arch_get
                0x00000000       0x30 contiki-sky.a(leds-arch.o)
 .text          0x00000000        0x0 contiki-sky.a(watchdog.o)
 .data          0x00000000        0x0 contiki-sky.a(watchdog.o)
 .text.watchdog_reboot
                0x00000000        0x6 contiki-sky.a(watchdog.o)
 .text          0x00000000        0x0 contiki-sky.a(rtimer-arch.o)
 .data          0x00000000        0x0 contiki-sky.a(rtimer-arch.o)
 .bss           0x00000000        0x0 contiki-sky.a(rtimer-arch.o)
 .text          0x00000000        0x0 contiki-sky.a(autostart.o)
 .data          0x00000000        0x0 contiki-sky.a(autostart.o)
 .bss           0x00000000        0x0 contiki-sky.a(autostart.o)
 .text.autostart_exit
                0x00000000       0x14 contiki-sky.a(autostart.o)
 .text          0x00000000        0x0 contiki-sky.a(ctimer.o)
 .text.ctimer_expired
                0x00000000       0x32 contiki-sky.a(ctimer.o)
 .text          0x00000000        0x0 contiki-sky.a(energest.o)
 .data          0x00000000        0x0 contiki-sky.a(energest.o)
 .bss           0x00000000        0x0 contiki-sky.a(energest.o)
 .text.energest_leveldevice_leveltime
                0x00000000        0x6 contiki-sky.a(energest.o)
 .text          0x00000000        0x0 contiki-sky.a(etimer.o)
 .text.etimer_reset_with_new_interval
                0x00000000       0x26 contiki-sky.a(etimer.o)
 .text.etimer_adjust
                0x00000000       0x1a contiki-sky.a(etimer.o)
 .text.etimer_start_time
                0x00000000        0x8 contiki-sky.a(etimer.o)
 .text          0x00000000        0x0 contiki-sky.a(process.o)
 .data          0x00000000        0x0 contiki-sky.a(process.o)
 .text.process_exit
                0x00000000        0xa contiki-sky.a(process.o)
 .text.process_is_running
                0x00000000        0xe contiki-sky.a(process.o)
 .text          0x00000000        0x0 contiki-sky.a(rtimer.o)
 .data          0x00000000        0x0 contiki-sky.a(rtimer.o)
 .text          0x00000000        0x0 contiki-sky.a(timer.o)
 .data          0x00000000        0x0 contiki-sky.a(timer.o)
 .bss           0x00000000        0x0 contiki-sky.a(timer.o)
 .text.timer_remaining
                0x00000000       0x28 contiki-sky.a(timer.o)
 .text          0x00000000        0x0 contiki-sky.a(serial-line.o)
 .data          0x00000000        0xa contiki-sky.a(serial-line.o)
 .bss           0x00000000      0x10a contiki-sky.a(serial-line.o)
 .text.process_thread_serial_line_process
                0x00000000       0x9c contiki-sky.a(serial-line.o)
 .text.serial_line_input_byte
                0x00000000       0x4a contiki-sky.a(serial-line.o)
 .text.serial_line_init
                0x00000000       0x1c contiki-sky.a(serial-line.o)
 .rodata        0x00000000        0xe contiki-sky.a(serial-line.o)
 COMMON         0x00000000        0x1 contiki-sky.a(serial-line.o)
 .text          0x00000000        0x0 contiki-sky.a(list.o)
 .data          0x00000000        0x0 contiki-sky.a(list.o)
 .bss           0x00000000        0x0 contiki-sky.a(list.o)
 .text.list_copy
                0x00000000        0x6 contiki-sky.a(list.o)
 .text.list_chop
                0x00000000       0x24 contiki-sky.a(list.o)
 .text.list_pop
                0x00000000        0xe contiki-sky.a(list.o)
 .text.list_insert
                0x00000000       0x16 contiki-sky.a(list.o)
 .text          0x00000000        0x0 contiki-sky.a(random.o)
 .data          0x00000000        0x0 contiki-sky.a(random.o)
 .bss           0x00000000        0x0 contiki-sky.a(random.o)
 .text          0x00000000        0x0 contiki-sky.a(ringbuf.o)
 .data          0x00000000        0x0 contiki-sky.a(ringbuf.o)
 .bss           0x00000000        0x0 contiki-sky.a(ringbuf.o)
 .text.ringbuf_init
                0x00000000       0x14 contiki-sky.a(ringbuf.o)
 .text.ringbuf_put
                0x00000000       0x38 contiki-sky.a(ringbuf.o)
 .text.ringbuf_get
                0x00000000       0x34 contiki-sky.a(ringbuf.o)
 .text.ringbuf_size
                0x00000000        0x8 contiki-sky.a(ringbuf.o)
 .text.ringbuf_elements
                0x00000000       0x12 contiki-sky.a(ringbuf.o)
 .text          0x00000000        0x0 contiki-sky.a(sicslowpan.o)
 .data          0x00000000        0x0 contiki-sky.a(sicslowpan.o)
 .text.rime_sniffer_add
                0x00000000        0x6 contiki-sky.a(sicslowpan.o)
 .text.rime_sniffer_remove
                0x00000000        0x6 contiki-sky.a(sicslowpan.o)
 .text.sicslowpan_get_last_rssi
                0x00000000        0x6 contiki-sky.a(sicslowpan.o)
 .text          0x00000000        0x0 contiki-sky.a(uip6.o)
 .data          0x00000000        0x0 contiki-sky.a(uip6.o)
 .text.uip_chksum
                0x00000000       0x18 contiki-sky.a(uip6.o)
 .text.uip_connect
                0x00000000      0x11a contiki-sky.a(uip6.o)
 .text.uip_listen
                0x00000000       0x1e contiki-sky.a(uip6.o)
 .text.uip_htons
                0x00000000        0xc contiki-sky.a(uip6.o)
 .text.uip_send
                0x00000000       0x74 contiki-sky.a(uip6.o)
 .text          0x00000000        0x0 contiki-sky.a(uip-ds6.o)
 .data          0x00000000        0x0 contiki-sky.a(uip-ds6.o)
 .text.uip_ds6_prefix_rm
                0x00000000        0xa contiki-sky.a(uip-ds6.o)
 .text.uip_ds6_prefix_lookup
                0x00000000       0x28 contiki-sky.a(uip-ds6.o)
 .text.uip_ds6_get_global
                0x00000000       0x3e contiki-sky.a(uip-ds6.o)
 .text.uip_ds6_maddr_rm
                0x00000000        0xa contiki-sky.a(uip-ds6.o)
 .text.uip_ds6_aaddr_add
                0x00000000       0x4a contiki-sky.a(uip-ds6.o)
 .text.uip_ds6_aaddr_rm
                0x00000000        0xa contiki-sky.a(uip-ds6.o)
 .text.uip_ds6_aaddr_lookup
                0x00000000       0x28 contiki-sky.a(uip-ds6.o)
 .text          0x00000000        0x0 contiki-sky.a(uip-ds6-nbr.o)
 .text.uip_ds6_nbr_get_ipaddr
                0x00000000        0x2 contiki-sky.a(uip-ds6-nbr.o)
 .text.uip_ds6_nbr_num
                0x00000000       0x24 contiki-sky.a(uip-ds6-nbr.o)
 .text          0x00000000        0x0 contiki-sky.a(uip-ds6-route.o)
 .text.uip_ds6_notification_add
                0x00000000       0x18 contiki-sky.a(uip-ds6-route.o)
 .text.uip_ds6_notification_rm
                0x00000000        0xc contiki-sky.a(uip-ds6-route.o)
 .text.uip_ds6_route_num_routes
                0x00000000        0x6 contiki-sky.a(uip-ds6-route.o)
 .text.uip_ds6_route_rm_by_nexthop
                0x00000000       0x14 contiki-sky.a(uip-ds6-route.o)
 .text.uip_ds6_defrt_head
                0x00000000        0xa contiki-sky.a(uip-ds6-route.o)
 .text          0x00000000        0x0 contiki-sky.a(uip-icmp6.o)
 .text.uip_icmp6_echo_reply_callback_add
                0x00000000       0x18 contiki-sky.a(uip-icmp6.o)
 .text.uip_icmp6_echo_reply_callback_rm
                0x00000000        0xc contiki-sky.a(uip-icmp6.o)
 .text          0x00000000        0x0 contiki-sky.a(uip-nd6.o)
 .text          0x00000000        0x0 contiki-sky.a(tcpip.o)
 .text.tcp_unlisten
                0x00000000       0x26 contiki-sky.a(tcpip.o)
 .text.tcp_listen
                0x00000000       0x24 contiki-sky.a(tcpip.o)
 .text.tcp_attach
                0x00000000        0xc contiki-sky.a(tcpip.o)
 .text.udp_attach
                0x00000000        0xc contiki-sky.a(tcpip.o)
 .text.udp_broadcast_new
                0x00000000       0x46 contiki-sky.a(tcpip.o)
 .text.tcpip_poll_udp
                0x00000000        0xe contiki-sky.a(tcpip.o)
 .text.tcpip_poll_tcp
                0x00000000        0xe contiki-sky.a(tcpip.o)
 .text.tcp_connect
                0x00000000       0x26 contiki-sky.a(tcpip.o)
 .text          0x00000000        0x0 contiki-sky.a(uip-debug.o)
 .data          0x00000000        0x0 contiki-sky.a(uip-debug.o)
 .bss           0x00000000        0x0 contiki-sky.a(uip-debug.o)
 .text          0x00000000        0x0 contiki-sky.a(rpl.o)
 .data          0x00000000        0x0 contiki-sky.a(rpl.o)
 .text.rpl_set_mode
                0x00000000       0x52 contiki-sky.a(rpl.o)
 .text          0x00000000        0x0 contiki-sky.a(rpl-dag.o)
 .text.rpl_get_parent_rank
                0x00000000       0x18 contiki-sky.a(rpl-dag.o)
 .text.rpl_get_parent_link_metric
                0x00000000       0x2e contiki-sky.a(rpl-dag.o)
 .text.rpl_get_nbr
                0x00000000       0x18 contiki-sky.a(rpl-dag.o)
 .rodata        0x00000000       0x84 contiki-sky.a(rpl-dag.o)
 .text.rpl_print_neighbor_list
                0x00000000      0x12a contiki-sky.a(rpl-dag.o)
 .text.rpl_set_default_instance
                0x00000000        0x6 contiki-sky.a(rpl-dag.o)
 .text.rpl_get_default_instance
                0x00000000        0x6 contiki-sky.a(rpl-dag.o)
 .text.rpl_free_instance
                0x00000000       0x70 contiki-sky.a(rpl-dag.o)
 .text.rpl_has_downward_route
                0x00000000       0x16 contiki-sky.a(rpl-dag.o)
 .text          0x00000000        0x0 contiki-sky.a(rpl-ext-header.)
 .data          0x00000000        0x0 contiki-sky.a(rpl-ext-header.)
 .bss           0x00000000        0x0 contiki-sky.a(rpl-ext-header.)
 .text          0x00000000        0x0 contiki-sky.a(rpl-icmp6.o)
 .bss           0x00000000        0x0 contiki-sky.a(rpl-icmp6.o)
 .text.dao_ack_output
                0x00000000        0x2 contiki-sky.a(rpl-icmp6.o)
 .text          0x00000000        0x0 contiki-sky.a(rpl-mrhof.o)
 .bss           0x00000000        0x0 contiki-sky.a(rpl-mrhof.o)
 .text          0x00000000        0x0 contiki-sky.a(rpl-timers.o)
 .data          0x00000000        0x0 contiki-sky.a(rpl-timers.o)
 .text.rpl_schedule_dao_immediately
                0x00000000        0xa contiki-sky.a(rpl-timers.o)
 .text.rpl_cancel_dao
                0x00000000       0x1a contiki-sky.a(rpl-timers.o)
 .text          0x00000000        0x0 contiki-sky.a(csma.o)
 .text          0x00000000        0x0 contiki-sky.a(framer-802154.o)
 .data          0x00000000        0x0 contiki-sky.a(framer-802154.o)
 .text          0x00000000        0x0 contiki-sky.a(mac.o)
 .data          0x00000000        0x0 contiki-sky.a(mac.o)
 .bss           0x00000000        0x0 contiki-sky.a(mac.o)
 .text          0x00000000        0x0 contiki-sky.a(linkaddr.o)
 .data          0x00000000        0x0 contiki-sky.a(linkaddr.o)
 .bss           0x00000000        0x0 contiki-sky.a(linkaddr.o)
 .text          0x00000000        0x0 contiki-sky.a(link-stats.o)
 .text.guess_etx_from_rssi
                0x00000000       0x42 contiki-sky.a(link-stats.o)
 .text          0x00000000        0x0 contiki-sky.a(nbr-table.o)
 .text          0x00000000        0x0 contiki-sky.a(packetbuf.o)
 .data          0x00000000        0x0 contiki-sky.a(packetbuf.o)
 .text.packetbuf_compact
                0x00000000       0x36 contiki-sky.a(packetbuf.o)
 .text.packetbuf_remaininglen
                0x00000000        0xe contiki-sky.a(packetbuf.o)
 .text          0x00000000        0x0 contiki-sky.a(queuebuf.o)
 .text.queuebuf_dataptr
                0x00000000       0x1c contiki-sky.a(queuebuf.o)
 .text.queuebuf_datalen
                0x00000000        0x8 contiki-sky.a(queuebuf.o)
 .text.queuebuf_addr
                0x00000000       0x12 contiki-sky.a(queuebuf.o)
 .text.queuebuf_debug_print
                0x00000000        0x2 contiki-sky.a(queuebuf.o)
 .text          0x00000000        0x0 contiki-sky.a(contikimac.o)
 .data          0x00000000        0x0 contiki-sky.a(contikimac.o)
 .text.contikimac_debug_print
                0x00000000        0x4 contiki-sky.a(contikimac.o)
 .text          0x00000000        0x0 contiki-sky.a(nullsec.o)
 .data          0x00000000        0x0 contiki-sky.a(nullsec.o)
 .bss           0x00000000        0x0 contiki-sky.a(nullsec.o)
 .text          0x00000000        0x0 contiki-sky.a(spi.o)
 .data          0x00000000        0x0 contiki-sky.a(spi.o)
 .bss           0x00000000        0x2 contiki-sky.a(spi.o)
 .text          0x00000000        0x0 contiki-sky.a(compower.o)
 .data          0x00000000        0x0 contiki-sky.a(compower.o)
 .text.compower_init
                0x00000000        0xa contiki-sky.a(compower.o)
 .text.compower_accumulate_attrs
                0x00000000       0x20 contiki-sky.a(compower.o)
 .text          0x00000000        0x0 contiki-sky.a(stimer.o)
 .data          0x00000000        0x0 contiki-sky.a(stimer.o)
 .bss           0x00000000        0x0 contiki-sky.a(stimer.o)
 .text.stimer_reset
                0x00000000        0xe contiki-sky.a(stimer.o)
 .text.stimer_restart
                0x00000000       0x14 contiki-sky.a(stimer.o)
 .text.stimer_remaining
                0x00000000       0x28 contiki-sky.a(stimer.o)
 .text.stimer_elapsed
                0x00000000       0x12 contiki-sky.a(stimer.o)
 .text          0x00000000        0x0 contiki-sky.a(memb.o)
 .data          0x00000000        0x0 contiki-sky.a(memb.o)
 .bss           0x00000000        0x0 contiki-sky.a(memb.o)
 .text          0x00000000        0x0 contiki-sky.a(rpl-nbr-policy.)
 .data          0x00000000        0x0 contiki-sky.a(rpl-nbr-policy.)
 .text          0x00000000        0x0 contiki-sky.a(frame802154.o)
 .bss           0x00000000        0x0 contiki-sky.a(frame802154.o)
 .text.frame802154_set_pan_id
                0x00000000        0x6 contiki-sky.a(frame802154.o)
 .text.frame802154_check_dest_panid
                0x00000000       0x3c contiki-sky.a(frame802154.o)
 .text.frame802154_extract_linkaddr
                0x00000000       0x9c contiki-sky.a(frame802154.o)
 .text          0x00000000        0x0 contiki-sky.a(mac-sequence.o)
 .data          0x00000000        0x0 contiki-sky.a(mac-sequence.o)
 .text          0x00000000        0x0 /usr/lib/gcc/msp430/4.6.3/mmpy-16/libgcc.a(_mulsi3.o)
 .data          0x00000000        0x0 /usr/lib/gcc/msp430/4.6.3/mmpy-16/libgcc.a(_mulsi3.o)
 .bss           0x00000000        0x0 /usr/lib/gcc/msp430/4.6.3/mmpy-16/libgcc.a(_mulsi3.o)
 .text          0x00000000        0x0 /usr/lib/gcc/msp430/4.6.3/mmpy-16/libgcc.a(_udivmod16.o)
 .data          0x00000000        0x0 /usr/lib/gcc/msp430/4.6.3/mmpy-16/libgcc.a(_udivmod16.o)
 .bss           0x00000000        0x0 /usr/lib/gcc/msp430/4.6.3/mmpy-16/libgcc.a(_udivmod16.o)
 .text          0x00000000        0x0 /usr/lib/gcc/msp430/4.6.3/mmpy-16/libgcc.a(_divmod16.o)
 .data          0x00000000        0x0 /usr/lib/gcc/msp430/4.6.3/mmpy-16/libgcc.a(_divmod16.o)
 .bss           0x00000000        0x0 /usr/lib/gcc/msp430/4.6.3/mmpy-16/libgcc.a(_divmod16.o)
 .text          0x00000000        0x0 /usr/lib/gcc/msp430/4.6.3/mmpy-16/libgcc.a(_udivmod32.o)
 .data          0x00000000        0x0 /usr/lib/gcc/msp430/4.6.3/mmpy-16/libgcc.a(_udivmod32.o)
 .bss           0x00000000        0x0 /usr/lib/gcc/msp430/4.6.3/mmpy-16/libgcc.a(_udivmod32.o)
 .text          0x00000000        0x0 /usr/lib/gcc/msp430/4.6.3/mmpy-16/libgcc.a(_divmod32.o)
 .data          0x00000000        0x0 /usr/lib/gcc/msp430/4.6.3/mmpy-16/libgcc.a(_divmod32.o)
 .bss           0x00000000        0x0 /usr/lib/gcc/msp430/4.6.3/mmpy-16/libgcc.a(_divmod32.o)
 .text          0x00000000       0x28 /usr/lib/gcc/msp430/4.6.3/../../../../msp430/lib/mmpy-16/libc.a(strncmp.o)
 .data          0x00000000        0x0 /usr/lib/gcc/msp430/4.6.3/../../../../msp430/lib/mmpy-16/libc.a(strncmp.o)
 .bss           0x00000000        0x0 /usr/lib/gcc/msp430/4.6.3/../../../../msp430/lib/mmpy-16/libc.a(strncmp.o)
 .data          0x00000000        0x0 /usr/lib/gcc/msp430/4.6.3/../../../../msp430/lib/mmpy-16/libc.a(memcmp.o)
 .bss           0x00000000        0x0 /usr/lib/gcc/msp430/4.6.3/../../../../msp430/lib/mmpy-16/libc.a(memcmp.o)
 .data          0x00000000        0x0 /usr/lib/gcc/msp430/4.6.3/../../../../msp430/lib/mmpy-16/libc.a(memcpy.o)
 .bss           0x00000000        0x0 /usr/lib/gcc/msp430/4.6.3/../../../../msp430/lib/mmpy-16/libc.a(memcpy.o)
 .data          0x00000000        0x0 /usr/lib/gcc/msp430/4.6.3/../../../../msp430/lib/mmpy-16/libc.a(memmove.o)
 .bss           0x00000000        0x0 /usr/lib/gcc/msp430/4.6.3/../../../../msp430/lib/mmpy-16/libc.a(memmove.o)
 .data          0x00000000        0x0 /usr/lib/gcc/msp430/4.6.3/../../../../msp430/lib/mmpy-16/libc.a(memset.o)
 .bss           0x00000000        0x0 /usr/lib/gcc/msp430/4.6.3/../../../../msp430/lib/mmpy-16/libc.a(memset.o)
 .data          0x00000000        0x0 /usr/lib/gcc/msp430/4.6.3/../../../../msp430/lib/mmpy-16/libc.a(printf.o)
 .bss           0x00000000        0x0 /usr/lib/gcc/msp430/4.6.3/../../../../msp430/lib/mmpy-16/libc.a(printf.o)
 .data          0x00000000        0x0 /usr/lib/gcc/msp430/4.6.3/../../../../msp430/lib/mmpy-16/libc.a(vuprintf.o)
 .bss           0x00000000        0x0 /usr/lib/gcc/msp430/4.6.3/../../../../msp430/lib/mmpy-16/libc.a(vuprintf.o)
 .data          0x00000000        0x0 /usr/lib/gcc/msp430/4.6.3/../../../../msp430/lib/mmpy-16/libc.a(puts.o)
 .bss           0x00000000        0x0 /usr/lib/gcc/msp430/4.6.3/../../../../msp430/lib/mmpy-16/libc.a(puts.o)
 .bss           0x00000000        0x0 /usr/lib/gcc/msp430/4.6.3/../../../../msp430/lib/mmpy-16/libc.a(rand.o)
 .text          0x00000000        0x0 /usr/lib/gcc/msp430/4.6.3/mmpy-16/libgcc.a(_udivmod64.o)
 .data          0x00000000        0x0 /usr/lib/gcc/msp430/4.6.3/mmpy-16/libgcc.a(_udivmod64.o)
 .bss           0x00000000        0x0 /usr/lib/gcc/msp430/4.6.3/mmpy-16/libgcc.a(_udivmod64.o)
 .text          0x00000000        0x0 /usr/lib/gcc/msp430/4.6.3/mmpy-16/libcrt0.a(_reset_vector__.o)
 .data          0x00000000        0x0 /usr/lib/gcc/msp430/4.6.3/mmpy-16/libcrt0.a(_reset_vector__.o)
 .bss           0x00000000        0x0 /usr/lib/gcc/msp430/4.6.3/mmpy-16/libcrt0.a(_reset_vector__.o)
 .text          0x00000000        0x0 /usr/lib/gcc/msp430/4.6.3/mmpy-16/libcrt0.a(__watchdog_support.o)
 .data          0x00000000        0x0 /usr/lib/gcc/msp430/4.6.3/mmpy-16/libcrt0.a(__watchdog_support.o)
 .bss           0x00000000        0x0 /usr/lib/gcc/msp430/4.6.3/mmpy-16/libcrt0.a(__watchdog_support.o)
 .text          0x00000000        0x0 /usr/lib/gcc/msp430/4.6.3/mmpy-16/libcrt0.a(__init_stack.o)
 .data          0x00000000        0x0 /usr/lib/gcc/msp430/4.6.3/mmpy-16/libcrt0.a(__init_stack.o)
 .bss           0x00000000        0x0 /usr/lib/gcc/msp430/4.6.3/mmpy-16/libcrt0.a(__init_stack.o)
 .text          0x00000000        0x0 /usr/lib/gcc/msp430/4.6.3/mmpy-16/libcrt0.a(__low_level_init.o)
 .data          0x00000000        0x0 /usr/lib/gcc/msp430/4.6.3/mmpy-16/libcrt0.a(__low_level_init.o)
 .bss           0x00000000        0x0 /usr/lib/gcc/msp430/4.6.3/mmpy-16/libcrt0.a(__low_level_init.o)
 .text          0x00000000        0x0 /usr/lib/gcc/msp430/4.6.3/mmpy-16/libcrt0.a(_copy_data.o)
 .data          0x00000000        0x0 /usr/lib/gcc/msp430/4.6.3/mmpy-16/libcrt0.a(_copy_data.o)
 .bss           0x00000000        0x0 /usr/lib/gcc/msp430/4.6.3/mmpy-16/libcrt0.a(_copy_data.o)
 .text          0x00000000        0x0 /usr/lib/gcc/msp430/4.6.3/mmpy-16/libcrt0.a(_clear_bss.o)
 .data          0x00000000        0x0 /usr/lib/gcc/msp430/4.6.3/mmpy-16/libcrt0.a(_clear_bss.o)
 .bss           0x00000000        0x0 /usr/lib/gcc/msp430/4.6.3/mmpy-16/libcrt0.a(_clear_bss.o)
 .text          0x00000000        0x0 /usr/lib/gcc/msp430/4.6.3/mmpy-16/libcrt0.a(__stop_progExec__.o)
 .data          0x00000000        0x0 /usr/lib/gcc/msp430/4.6.3/mmpy-16/libcrt0.a(__stop_progExec__.o)
 .bss           0x00000000        0x0 /usr/lib/gcc/msp430/4.6.3/mmpy-16/libcrt0.a(__stop_progExec__.o)
 .text          0x00000000        0x0 /usr/lib/gcc/msp430/4.6.3/mmpy-16/libcrt0.a(_endless_loop__.o)
 .data          0x00000000        0x0 /usr/lib/gcc/msp430/4.6.3/mmpy-16/libcrt0.a(_endless_loop__.o)
 .bss           0x00000000        0x0 /usr/lib/gcc/msp430/4.6.3/mmpy-16/libcrt0.a(_endless_loop__.o)
 .text          0x00000000        0x0 /usr/lib/gcc/msp430/4.6.3/mmpy-16/libcrt0.a(_unexpected_.o)
 .data          0x00000000        0x0 /usr/lib/gcc/msp430/4.6.3/mmpy-16/libcrt0.a(_unexpected_.o)
 .bss           0x00000000        0x0 /usr/lib/gcc/msp430/4.6.3/mmpy-16/libcrt0.a(_unexpected_.o)

Memory Configuration

Name             Origin             Length             Attributes
sfr              0x00000000         0x00000010
peripheral_8bit  0x00000010         0x000000f0
peripheral_16bit 0x00000100         0x00000100
ram_mirror       0x00000200         0x00000800         xw
infomem          0x00001000         0x00000100
infob            0x00001000         0x00000080
infoa            0x00001080         0x00000080
ram              0x00001100         0x00002800         xw
rom              0x00004000         0x0000bfe0         xr
vectors          0x0000ffe0         0x00000020
bsl              0x00000000         0x00000000
infoc            0x00000000         0x00000000
infod            0x00000000         0x00000000
ram2             0x00000000         0x00000000         xw
usbram           0x00000000         0x00000000         xw
far_rom          0x00000000         0x00000000
*default*        0x00000000         0xffffffff

Linker script and memory map

LOAD /usr/lib/gcc/msp430/4.6.3/mmpy-16/crt0ivtbl16.o
LOAD udp-server.co
LOAD obj_sky/collect-common.o
LOAD obj_sky/contiki-sky-main.o
LOAD contiki-sky.a
LOAD /usr/lib/gcc/msp430/4.6.3/mmpy-16/libgcc.a
LOAD /usr/lib/gcc/msp430/4.6.3/../../../../msp430/lib/mmpy-16/libc.a
LOAD /usr/lib/gcc/msp430/4.6.3/mmpy-16/libgcc.a
LOAD /usr/lib/gcc/msp430/4.6.3/mmpy-16/libcrt0.a
                0x00000080                PROVIDE (__info_segment_size, 0x80)
                0x00001000                PROVIDE (__infob, 0x1000)
                0x00001080                PROVIDE (__infoa, 0x1080)
                0x00000000                __IE1 = 0x0
                0x00000002                __IFG1 = 0x2
                0x00000004                __ME1 = 0x4
                0x00000001                __IE2 = 0x1
                0x00000003                __IFG2 = 0x3
                0x00000005                __ME2 = 0x5
                0x00000120                __WDTCTL = 0x120
                0x00000130                __MPY = 0x130
                0x00000132                __MPYS = 0x132
                0x00000134                __MAC = 0x134
                0x00000136                __MACS = 0x136
                0x00000138                __OP2 = 0x138
                0x0000013a                __RESLO = 0x13a
                0x0000013c                __RESHI = 0x13c
                0x0000013e                __SUMEXT = 0x13e
                0x00000020                __P1IN = 0x20
                0x00000021                __P1OUT = 0x21
                0x00000022                __P1DIR = 0x22
                0x00000023                __P1IFG = 0x23
                0x00000024                __P1IES = 0x24
                0x00000025                __P1IE = 0x25
                0x00000026                __P1SEL = 0x26
                0x00000028                __P2IN = 0x28
                0x00000029                __P2OUT = 0x29
                0x0000002a                __P2DIR = 0x2a
                0x0000002b                __P2IFG = 0x2b
                0x0000002c                __P2IES = 0x2c
                0x0000002d                __P2IE = 0x2d
                0x0000002e                __P2SEL = 0x2e
                0x00000018                __P3IN = 0x18
                0x00000019                __P3OUT = 0x19
                0x0000001a                __P3DIR = 0x1a
                0x0000001b                __P3SEL = 0x1b
                0x0000001c                __P4IN = 0x1c
                0x0000001d                __P4OUT = 0x1d
                0x0000001e                __P4DIR = 0x1e
                0x0000001f                __P4SEL = 0x1f
                0x00000030                __P5IN = 0x30
                0x00000031                __P5OUT = 0x31
                0x00000032                __P5DIR = 0x32
                0x00000033                __P5SEL = 0x33
                0x00000034                __P6IN = 0x34
                0x00000035                __P6OUT = 0x35
                0x00000036                __P6DIR = 0x36
                0x00000037                __P6SEL = 0x37
                0x00000070                __U0CTL = 0x70
                0x00000071                __U0TCTL = 0x71
                0x00000072                __U0RCTL = 0x72
                0x00000073                __U0MCTL = 0x73
                0x00000074                __U0BR0 = 0x74
                0x00000075                __U0BR1 = 0x75
                0x00000076                __U0RXBUF = 0x76
                0x00000077                __U0TXBUF = 0x77
                0x00000078                __U1CTL = 0x78
                0x00000079                __U1TCTL = 0x79
                0x0000007a                __U1RCTL = 0x7a
                0x0000007b                __U1MCTL = 0x7b
                0x0000007c                __U1BR0 = 0x7c
                0x0000007d                __U1BR1 = 0x7d
                0x0000007e                __U1RXBUF = 0x7e
                0x0000007f                __U1TXBUF = 0x7f
                0x00000050                __I2CIE = 0x50
                0x00000051                __I2CIFG = 0x51
                0x00000052                __I2CNDAT = 0x52
                0x00000071                __I2CTCTL = 0x71
                0x00000072                __I2CDCTL = 0x72
                0x00000073                __I2CPSC = 0x73
                0x00000074                __I2CSCLH = 0x74
                0x00000075                __I2CSCLL = 0x75
                0x00000076                __I2CDRB = 0x76
                0x00000076                __I2CDRW = 0x76
                0x00000118                __I2COA = 0x118
                0x0000011a                __I2CSA = 0x11a
                0x0000011c                __I2CIV = 0x11c
                0x0000012e                __TAIV = 0x12e
                0x00000160                __TACTL = 0x160
                0x00000162                __TACCTL0 = 0x162
                0x00000164                __TACCTL1 = 0x164
                0x00000166                __TACCTL2 = 0x166
                0x00000170                __TAR = 0x170
                0x00000172                __TACCR0 = 0x172
                0x00000174                __TACCR1 = 0x174
                0x00000176                __TACCR2 = 0x176
                0x0000011e                __TBIV = 0x11e
                0x00000180                __TBCTL = 0x180
                0x00000182                __TBCCTL0 = 0x182
                0x00000184                __TBCCTL1 = 0x184
                0x00000186                __TBCCTL2 = 0x186
                0x00000188                __TBCCTL3 = 0x188
                0x0000018a                __TBCCTL4 = 0x18a
                0x0000018c                __TBCCTL5 = 0x18c
                0x0000018e                __TBCCTL6 = 0x18e
                0x00000190                __TBR = 0x190
                0x00000192                __TBCCR0 = 0x192
                0x00000194                __TBCCR1 = 0x194
                0x00000196                __TBCCR2 = 0x196
                0x00000198                __TBCCR3 = 0x198
                0x0000019a                __TBCCR4 = 0x19a
                0x0000019c                __TBCCR5 = 0x19c
                0x0000019e                __TBCCR6 = 0x19e
                0x00000056                __DCOCTL = 0x56
                0x00000057                __BCSCTL1 = 0x57
                0x00000058                __BCSCTL2 = 0x58
                0x00000055                __SVSCTL = 0x55
                0x00000128                __FCTL1 = 0x128
                0x0000012a                __FCTL2 = 0x12a
                0x0000012c                __FCTL3 = 0x12c
                0x00000059                __CACTL1 = 0x59
                0x0000005a                __CACTL2 = 0x5a
                0x0000005b                __CAPD = 0x5b
                0x000001a0                __ADC12CTL0 = 0x1a0
                0x000001a2                __ADC12CTL1 = 0x1a2
                0x000001a4                __ADC12IFG = 0x1a4
                0x000001a6                __ADC12IE = 0x1a6
                0x000001a8                __ADC12IV = 0x1a8
                0x00000140                __ADC12MEM0 = 0x140
                0x00000142                __ADC12MEM1 = 0x142
                0x00000144                __ADC12MEM2 = 0x144
                0x00000146                __ADC12MEM3 = 0x146
                0x00000148                __ADC12MEM4 = 0x148
                0x0000014a                __ADC12MEM5 = 0x14a
                0x0000014c                __ADC12MEM6 = 0x14c
                0x0000014e                __ADC12MEM7 = 0x14e
                0x00000150                __ADC12MEM8 = 0x150
                0x00000152                __ADC12MEM9 = 0x152
                0x00000154                __ADC12MEM10 = 0x154
                0x00000156                __ADC12MEM11 = 0x156
                0x00000158                __ADC12MEM12 = 0x158
                0x0000015a                __ADC12MEM13 = 0x15a
                0x0000015c                __ADC12MEM14 = 0x15c
                0x0000015e                __ADC12MEM15 = 0x15e
                0x00000080                __ADC12MCTL0 = 0x80
                0x00000081                __ADC12MCTL1 = 0x81
                0x00000082                __ADC12MCTL2 = 0x82
                0x00000083                __ADC12MCTL3 = 0x83
                0x00000084                __ADC12MCTL4 = 0x84
                0x00000085                __ADC12MCTL5 = 0x85
                0x00000086                __ADC12MCTL6 = 0x86
                0x00000087                __ADC12MCTL7 = 0x87
                0x00000088                __ADC12MCTL8 = 0x88
                0x00000089                __ADC12MCTL9 = 0x89
                0x0000008a                __ADC12MCTL10 = 0x8a
                0x0000008b                __ADC12MCTL11 = 0x8b
                0x0000008c                __ADC12MCTL12 = 0x8c
                0x0000008d                __ADC12MCTL13 = 0x8d
                0x0000008e                __ADC12MCTL14 = 0x8e
                0x0000008f                __ADC12MCTL15 = 0x8f
                0x000001c0                __DAC12_0CTL = 0x1c0
                0x000001c2                __DAC12_1CTL = 0x1c2
                0x000001c8                __DAC12_0DAT = 0x1c8
                0x000001ca                __DAC12_1DAT = 0x1ca
                0x00000122                __DMACTL0 = 0x122
                0x00000124                __DMACTL1 = 0x124
                0x000001e0                __DMA0CTL = 0x1e0
                0x000001e8                __DMA1CTL = 0x1e8
                0x000001f0                __DMA2CTL = 0x1f0
                0x000001e2                __DMA0SA = 0x1e2
                0x000001e4                __DMA0DA = 0x1e4
                0x000001e6                __DMA0SZ = 0x1e6
                0x000001ea                __DMA1SA = 0x1ea
                0x000001ec                __DMA1DA = 0x1ec
                0x000001ee                __DMA1SZ = 0x1ee
                0x000001f2                __DMA2SA = 0x1f2
                0x000001f4                __DMA2DA = 0x1f4
                0x000001f6                __DMA2SZ = 0x1f6

.hash
 *(.hash)

.dynsym
 *(.dynsym)

.dynstr
 *(.dynstr)

.gnu.version
 *(.gnu.version)

.gnu.version_d
 *(.gnu.version_d)

.gnu.version_r
 *(.gnu.version_r)

.rel.init
 *(.rel.init)

.rela.init
 *(.rela.init)

.rel.fini
 *(.rel.fini)

.rela.fini
 *(.rela.fini)

.rel.text
 *(.rel.text .rel.text.* .rel.gnu.linkonce.t.*)

.rela.text
 *(.rela.text .rela.text.* .rela.gnu.linkonce.t.*)

.rel.rodata
 *(.rel.rodata .rel.rodata.* .rel.gnu.linkonce.r.*)

.rela.rodata
 *(.rela.rodata .rela.rodata.* .rela.gnu.linkonce.r.*)

.rel.data
 *(.rel.data .rel.data.* .rel.gnu.linkonce.d.*)

.rela.data
 *(.rela.data .rela.data.* .rela.gnu.linkonce.d.*)

.rel.bss
 *(.rel.bss .rel.bss.* .rel.gnu.linkonce.b.*)

.rela.bss
 *(.rela.bss .rela.bss.* .rela.gnu.linkonce.b.*)

.rel.ctors
 *(.rel.ctors)

.rela.ctors
 *(.rela.ctors)

.rel.dtors
 *(.rel.dtors)

.rela.dtors
 *(.rela.dtors)

.rel.got
 *(.rel.got)

.rela.got
 *(.rela.got)

.rel.plt
 *(.rel.plt)

.rela.plt
 *(.rela.plt)

.text           0x00004000     0xba24
                0x00004000                . = ALIGN (0x2)
 *(.init .init.*)
 *(.init0)
 .init0         0x00004000        0x0 /usr/lib/gcc/msp430/4.6.3/mmpy-16/libcrt0.a(_reset_vector__.o)
                0x00004000                _reset_vector__
 *(.init1)
 .init1         0x00004000        0xc /usr/lib/gcc/msp430/4.6.3/mmpy-16/libcrt0.a(__watchdog_support.o)
                0x00004000                __watchdog_support
 *(.init2)
 .init2         0x0000400c        0x4 /usr/lib/gcc/msp430/4.6.3/mmpy-16/libcrt0.a(__init_stack.o)
                0x0000400c                __init_stack
 *(.init3)
 .init3         0x00004010        0x0 /usr/lib/gcc/msp430/4.6.3/mmpy-16/libcrt0.a(__low_level_init.o)
                0x00004010                __low_level_init
 *(.init4)
 .init4         0x00004010       0x18 /usr/lib/gcc/msp430/4.6.3/mmpy-16/libcrt0.a(_copy_data.o)
                0x00004010                __do_copy_data
 .init4         0x00004028       0x16 /usr/lib/gcc/msp430/4.6.3/mmpy-16/libcrt0.a(_clear_bss.o)
                0x00004028                __do_clear_bss
 *(.init5)
 *(.init6)
 *(.init7)
 *(.init8)
 *(.init9)
 .init9         0x0000403e      0x340 obj_sky/contiki-sky-main.o
                0x0000403e                main
 *(.fini9)
 .fini9         0x0000437e        0x0 /usr/lib/gcc/msp430/4.6.3/mmpy-16/libcrt0.a(__stop_progExec__.o)
                0x0000437e                __stop_progExec__
 *(.fini8)
 *(.fini7)
 *(.fini6)
 *(.fini5)
 *(.fini4)
 *(.fini3)
 *(.fini2)
 *(.fini1)
 *(.fini0)
 .fini0         0x0000437e        0x6 /usr/lib/gcc/msp430/4.6.3/mmpy-16/libcrt0.a(_endless_loop__.o)
                0x0000437e                _endless_loop__
 *(.fini .fini.*)
                0x00004384                . = ALIGN (0x2)
                0x00004384                __ctors_start = .
 *(.ctors)
                0x00004384                __ctors_end = .
                0x00004384                __dtors_start = .
 *(.dtors)
                0x00004384                __dtors_end = .
                0x00004384                . = ALIGN (0x2)
 *(.text .text.* .gnu.linkonce.t.*)
 .text          0x00004384        0x4 /usr/lib/gcc/msp430/4.6.3/mmpy-16/crt0ivtbl16.o
                0x00004384                __isr_14
                0x00004384                __isr_11
                0x00004384                __isr_2
                0x00004384                __isr_7
                0x00004384                __isr_0
                0x00004384                __isr_8
                0x00004384                __isr_3
                0x00004384                __isr_12
                0x00004384                __isr_13
                0x00004384                __isr_9
 .text.process_thread_udp_server_process
                0x00004388      0x20c udp-server.co
 .text.collect_common_recv
                0x00004594       0xd0 obj_sky/collect-common.o
                0x00004594                collect_common_recv
 .text.init_platform
                0x00004664        0xc contiki-sky.a(contiki-sky-pla)
                0x00004664                init_platform
 .text.status   0x00004670       0x16 contiki-sky.a(button-sensor.o)
 .text.configure
                0x00004686       0x52 contiki-sky.a(button-sensor.o)
 .text.value    0x000046d8       0x22 contiki-sky.a(button-sensor.o)
 .text.irq_p2   0x000046fa       0x8a contiki-sky.a(button-sensor.o)
                0x000046fa                irq_p2
                0x000046fa                __isr_1
 .text.owreadb  0x00004784       0x52 contiki-sky.a(ds2411.o)
 .text.ds2411_init
                0x000047d6      0x122 contiki-sky.a(ds2411.o)
                0x000047d6                ds2411_init
 .text.wait_ready
                0x000048f8       0x50 contiki-sky.a(xmem.o)
 .text.xmem_init
                0x00004948       0x3e contiki-sky.a(xmem.o)
                0x00004948                xmem_init
 .text.xmem_pread
                0x00004986       0xea contiki-sky.a(xmem.o)
                0x00004986                xmem_pread
 .text.node_id_restore
                0x00004a70       0x38 contiki-sky.a(node-id.o)
                0x00004a70                node_id_restore
 .text.process_thread_sensors_process
                0x00004aa8       0xbe contiki-sky.a(sensors.o)
 .text.sensors_changed
                0x00004b66       0x2a contiki-sky.a(sensors.o)
                0x00004b66                sensors_changed
 .text.get_object
                0x00004b90        0x4 contiki-sky.a(cc2420.o)
 .text.set_object
                0x00004b94        0x4 contiki-sky.a(cc2420.o)
 .text.strobe   0x00004b98       0x20 contiki-sky.a(cc2420.o)
 .text.getreg   0x00004bb8       0x54 contiki-sky.a(cc2420.o)
 .text.setreg   0x00004c0c       0x52 contiki-sky.a(cc2420.o)
 .text.write_ram
                0x00004c5e       0x80 contiki-sky.a(cc2420.o)
 .text.write_fifo_buf
                0x00004cde       0x40 contiki-sky.a(cc2420.o)
 .text.get_status
                0x00004d1e       0x24 contiki-sky.a(cc2420.o)
 .text.set_txpower
                0x00004d42       0x26 contiki-sky.a(cc2420.o)
 .text.cc2420_receiving_packet
                0x00004d68        0xe contiki-sky.a(cc2420.o)
 .text.pending_packet
                0x00004d76        0x8 contiki-sky.a(cc2420.o)
 .text.on       0x00004d7e       0x26 contiki-sky.a(cc2420.o)
 .text.wait_for_transmission
                0x00004da4       0x22 contiki-sky.a(cc2420.o)
 .text.wait_for_status
                0x00004dc6       0x2a contiki-sky.a(cc2420.o)
 .text.getrxdata
                0x00004df0       0x56 contiki-sky.a(cc2420.o)
 .text.flushrx  0x00004e46       0x1a contiki-sky.a(cc2420.o)
 .text.off      0x00004e60       0x62 contiki-sky.a(cc2420.o)
 .text.RELEASE_LOCK
                0x00004ec2       0x28 contiki-sky.a(cc2420.o)
 .text.set_key  0x00004eea       0x18 contiki-sky.a(cc2420.o)
 .text.set_frame_filtering
                0x00004f02       0x30 contiki-sky.a(cc2420.o)
 .text.set_auto_ack
                0x00004f32       0x30 contiki-sky.a(cc2420.o)
 .text.set_poll_mode
                0x00004f62       0x36 contiki-sky.a(cc2420.o)
 .text.cc2420_prepare
                0x00004f98       0x3c contiki-sky.a(cc2420.o)
 .text.cc2420_on
                0x00004fd4       0x22 contiki-sky.a(cc2420.o)
                0x00004fd4                cc2420_on
 .text.cc2420_off
                0x00004ff6       0x30 contiki-sky.a(cc2420.o)
                0x00004ff6                cc2420_off
 .text.cc2420_cca
                0x00005026       0x5e contiki-sky.a(cc2420.o)
 .text.cc2420_read
                0x00005084       0xc0 contiki-sky.a(cc2420.o)
 .text.process_thread_cc2420_process
                0x00005144       0x58 contiki-sky.a(cc2420.o)
 .text.encrypt  0x0000519c       0x8e contiki-sky.a(cc2420.o)
 .text.cc2420_set_channel
                0x0000522a       0x3c contiki-sky.a(cc2420.o)
                0x0000522a                cc2420_set_channel
 .text.cc2420_set_pan_addr
                0x00005266       0x4c contiki-sky.a(cc2420.o)
                0x00005266                cc2420_set_pan_addr
 .text.cc2420_interrupt
                0x000052b2       0x18 contiki-sky.a(cc2420.o)
                0x000052b2                cc2420_interrupt
 .text.cc2420_set_txpower
                0x000052ca        0xe contiki-sky.a(cc2420.o)
                0x000052ca                cc2420_set_txpower
 .text.cc2420_get_txpower
                0x000052d8       0x1e contiki-sky.a(cc2420.o)
                0x000052d8                cc2420_get_txpower
 .text.cc2420_transmit
                0x000052f6      0x114 contiki-sky.a(cc2420.o)
 .text.cc2420_send
                0x0000540a       0x12 contiki-sky.a(cc2420.o)
 .text.cc2420_rssi
                0x0000541c       0x4c contiki-sky.a(cc2420.o)
                0x0000541c                cc2420_rssi
 .text.get_value
                0x00005468      0x108 contiki-sky.a(cc2420.o)
 .text.cc2420_set_cca_threshold
                0x00005570       0x16 contiki-sky.a(cc2420.o)
                0x00005570                cc2420_set_cca_threshold
 .text.set_value
                0x00005586       0xba contiki-sky.a(cc2420.o)
 .text.cc2420_init
                0x00005640       0xf0 contiki-sky.a(cc2420.o)
                0x00005640                cc2420_init
 .text.cc2420_port1_interrupt
                0x00005730       0x62 contiki-sky.a(cc2420-arch.o)
                0x00005730                __isr_4
                0x00005730                cc2420_port1_interrupt
 .text.cc2420_arch_init
                0x00005792       0x1a contiki-sky.a(cc2420-arch.o)
                0x00005792                cc2420_arch_init
 .text.uart1_active
                0x000057ac       0x1a contiki-sky.a(uart1.o)
                0x000057ac                uart1_active
 .text.uart1_writeb
                0x000057c6       0x1a contiki-sky.a(uart1.o)
                0x000057c6                uart1_writeb
 .text.uart1_init
                0x000057e0       0xf6 contiki-sky.a(uart1.o)
                0x000057e0                uart1_init
 .text.putchar  0x000058d6       0x10 contiki-sky.a(uart1-putchar.o)
                0x000058d6                putchar
 .text.msp430_init_dco
                0x000058e6       0x84 contiki-sky.a(msp430.o)
                0x000058e6                msp430_init_dco
 .text.msp430_add_lpm_req
                0x0000596a        0xc contiki-sky.a(msp430.o)
                0x0000596a                msp430_add_lpm_req
 .text.msp430_cpu_init
                0x00005976       0x2a contiki-sky.a(msp430.o)
                0x00005976                msp430_cpu_init
 .text.splhigh_
                0x000059a0        0x8 contiki-sky.a(msp430.o)
                0x000059a0                splhigh_
 .text.msp430_sync_dco
                0x000059a8       0x68 contiki-sky.a(msp430.o)
                0x000059a8                msp430_sync_dco
 .text.timera1  0x00005a10      0x11e contiki-sky.a(clock.o)
                0x00005a10                __isr_5
                0x00005a10                timera1
 .text.clock_time
                0x00005b2e       0x1a contiki-sky.a(clock.o)
                0x00005b2e                clock_time
 .text.clock_init
                0x00005b48       0x28 contiki-sky.a(clock.o)
                0x00005b48                clock_init
 .text.clock_delay
                0x00005b70        0xc contiki-sky.a(clock.o)
                0x00005b70                clock_delay
 .text.clock_seconds
                0x00005b7c       0x1a contiki-sky.a(clock.o)
                0x00005b7c                clock_seconds
 .text.show_leds
                0x00005b96       0xf6 contiki-sky.a(leds.o)
 .text.leds_init
                0x00005c8c        0xa contiki-sky.a(leds.o)
                0x00005c8c                leds_init
 .text.leds_on  0x00005c96        0xa contiki-sky.a(leds.o)
                0x00005c96                leds_on
 .text.leds_off
                0x00005ca0        0xe contiki-sky.a(leds.o)
                0x00005ca0                leds_off
 .text.leds_toggle
                0x00005cae        0xa contiki-sky.a(leds.o)
                0x00005cae                leds_toggle
 .text.leds_blink
                0x00005cb8       0x20 contiki-sky.a(leds.o)
                0x00005cb8                leds_blink
 .text.leds_arch_init
                0x00005cd8        0xe contiki-sky.a(leds-arch.o)
                0x00005cd8                leds_arch_init
 .text.leds_arch_set
                0x00005ce6       0x3a contiki-sky.a(leds-arch.o)
                0x00005ce6                leds_arch_set
 .text.watchdog_interrupt
                0x00005d20        0x6 contiki-sky.a(watchdog.o)
                0x00005d20                __isr_10
                0x00005d20                watchdog_interrupt
 .text.watchdog_start
                0x00005d26       0x14 contiki-sky.a(watchdog.o)
                0x00005d26                watchdog_start
 .text.watchdog_periodic
                0x00005d3a       0x12 contiki-sky.a(watchdog.o)
                0x00005d3a                watchdog_periodic
 .text.watchdog_stop
                0x00005d4c       0x16 contiki-sky.a(watchdog.o)
                0x00005d4c                watchdog_stop
 .text.watchdog_init
                0x00005d62       0x14 contiki-sky.a(watchdog.o)
                0x00005d62                watchdog_init
 .text.rtimer_arch_init
                0x00005d76        0xe contiki-sky.a(rtimer-arch.o)
                0x00005d76                rtimer_arch_init
 .text.rtimer_arch_now
                0x00005d84        0xe contiki-sky.a(rtimer-arch.o)
                0x00005d84                rtimer_arch_now
 .text.timera0  0x00005d92       0x70 contiki-sky.a(rtimer-arch.o)
                0x00005d92                __isr_6
                0x00005d92                timera0
 .text.rtimer_arch_schedule
                0x00005e02        0x6 contiki-sky.a(rtimer-arch.o)
                0x00005e02                rtimer_arch_schedule
 .text.autostart_start
                0x00005e08       0x16 contiki-sky.a(autostart.o)
                0x00005e08                autostart_start
 .text.process_thread_ctimer_process
                0x00005e1e       0xa4 contiki-sky.a(ctimer.o)
 .text.ctimer_init
                0x00005ec2       0x18 contiki-sky.a(ctimer.o)
                0x00005ec2                ctimer_init
 .text.ctimer_set_with_process
                0x00005eda       0x4e contiki-sky.a(ctimer.o)
                0x00005eda                ctimer_set_with_process
 .text.ctimer_set
                0x00005f28       0x10 contiki-sky.a(ctimer.o)
                0x00005f28                ctimer_set
 .text.ctimer_reset
                0x00005f38       0x30 contiki-sky.a(ctimer.o)
                0x00005f38                ctimer_reset
 .text.ctimer_restart
                0x00005f68       0x30 contiki-sky.a(ctimer.o)
                0x00005f68                ctimer_restart
 .text.ctimer_stop
                0x00005f98       0x28 contiki-sky.a(ctimer.o)
                0x00005f98                ctimer_stop
 .text.energest_init
                0x00005fc0       0x28 contiki-sky.a(energest.o)
                0x00005fc0                energest_init
 .text.energest_type_time
                0x00005fe8       0x46 contiki-sky.a(energest.o)
                0x00005fe8                energest_type_time
 .text.energest_type_set
                0x0000602e        0xe contiki-sky.a(energest.o)
                0x0000602e                energest_type_set
 .text.energest_flush
                0x0000603c       0x48 contiki-sky.a(energest.o)
                0x0000603c                energest_flush
 .text.update_time
                0x00006084       0x78 contiki-sky.a(etimer.o)
 .text.etimer_request_poll
                0x000060fc        0xa contiki-sky.a(etimer.o)
                0x000060fc                etimer_request_poll
 .text.process_thread_etimer_process
                0x00006106       0xc8 contiki-sky.a(etimer.o)
 .text.add_timer
                0x000061ce       0x40 contiki-sky.a(etimer.o)
 .text.etimer_set
                0x0000620e       0x12 contiki-sky.a(etimer.o)
                0x0000620e                etimer_set
 .text.etimer_reset
                0x00006220       0x12 contiki-sky.a(etimer.o)
                0x00006220                etimer_reset
 .text.etimer_restart
                0x00006232       0x12 contiki-sky.a(etimer.o)
                0x00006232                etimer_restart
 .text.etimer_expired
                0x00006244        0xe contiki-sky.a(etimer.o)
                0x00006244                etimer_expired
 .text.etimer_expiration_time
                0x00006252       0x14 contiki-sky.a(etimer.o)
                0x00006252                etimer_expiration_time
 .text.etimer_pending
                0x00006266        0xc contiki-sky.a(etimer.o)
                0x00006266                etimer_pending
 .text.etimer_next_expiration_time
                0x00006272       0x16 contiki-sky.a(etimer.o)
                0x00006272                etimer_next_expiration_time
 .text.etimer_stop
                0x00006288       0x3c contiki-sky.a(etimer.o)
                0x00006288                etimer_stop
 .text.call_process
                0x000062c4       0x4a contiki-sky.a(process.o)
 .text.exit_process
                0x0000630e       0x96 contiki-sky.a(process.o)
 .text.do_poll  0x000063a4       0x30 contiki-sky.a(process.o)
 .text.process_alloc_event
                0x000063d4        0xe contiki-sky.a(process.o)
                0x000063d4                process_alloc_event
 .text.process_init
                0x000063e2       0x1c contiki-sky.a(process.o)
                0x000063e2                process_init
 .text.process_run
                0x000063fe       0x92 contiki-sky.a(process.o)
                0x000063fe                process_run
 .text.process_nevents
                0x00006490        0xe contiki-sky.a(process.o)
                0x00006490                process_nevents
 .text.process_post
                0x0000649e       0x4e contiki-sky.a(process.o)
                0x0000649e                process_post
 .text.process_post_synch
                0x000064ec       0x12 contiki-sky.a(process.o)
                0x000064ec                process_post_synch
 .text.process_start
                0x000064fe       0x32 contiki-sky.a(process.o)
                0x000064fe                process_start
 .text.process_poll
                0x00006530       0x18 contiki-sky.a(process.o)
                0x00006530                process_poll
 .text.rtimer_init
                0x00006548        0x6 contiki-sky.a(rtimer.o)
                0x00006548                rtimer_init
 .text.rtimer_set
                0x0000654e       0x24 contiki-sky.a(rtimer.o)
                0x0000654e                rtimer_set
 .text.rtimer_run_next
                0x00006572       0x26 contiki-sky.a(rtimer.o)
                0x00006572                rtimer_run_next
 .text.timer_set
                0x00006598       0x1c contiki-sky.a(timer.o)
                0x00006598                timer_set
 .text.timer_reset
                0x000065b4        0xe contiki-sky.a(timer.o)
                0x000065b4                timer_reset
 .text.timer_restart
                0x000065c2       0x14 contiki-sky.a(timer.o)
                0x000065c2                timer_restart
 .text.timer_expired
                0x000065d6       0x2a contiki-sky.a(timer.o)
                0x000065d6                timer_expired
 .text.list_init
                0x00006600        0x6 contiki-sky.a(list.o)
                0x00006600                list_init
 .text.list_head
                0x00006606        0x4 contiki-sky.a(list.o)
                0x00006606                list_head
 .text.list_tail
                0x0000660a       0x12 contiki-sky.a(list.o)
                0x0000660a                list_tail
 .text.list_remove
                0x0000661c       0x34 contiki-sky.a(list.o)
                0x0000661c                list_remove
 .text.list_push
                0x00006650       0x1a contiki-sky.a(list.o)
                0x00006650                list_push
 .text.list_add
                0x0000666a       0x2a contiki-sky.a(list.o)
                0x0000666a                list_add
 .text.list_length
                0x00006694       0x10 contiki-sky.a(list.o)
                0x00006694                list_length
 .text.list_item_next
                0x000066a4        0xc contiki-sky.a(list.o)
                0x000066a4                list_item_next
 .text.random_init
                0x000066b0        0x6 contiki-sky.a(random.o)
                0x000066b0                random_init
 .text.random_rand
                0x000066b6        0x6 contiki-sky.a(random.o)
                0x000066b6                random_rand
 .text.clear_fragments
                0x000066bc       0x42 contiki-sky.a(sicslowpan.o)
 .text.set_packet_attrs
                0x000066fe       0x44 contiki-sky.a(sicslowpan.o)
 .text.addr_context_lookup_by_number
                0x00006742       0x36 contiki-sky.a(sicslowpan.o)
 .text.compress_addr_64
                0x00006778       0xae contiki-sky.a(sicslowpan.o)
 .text.store_fragment
                0x00006826       0xc8 contiki-sky.a(sicslowpan.o)
 .text.add_fragment
                0x000068ee      0x1ee contiki-sky.a(sicslowpan.o)
 .text.uncompress_addr
                0x00006adc       0xb4 contiki-sky.a(sicslowpan.o)
 .text.input    0x00006b90      0x6f0 contiki-sky.a(sicslowpan.o)
 .text.sicslowpan_init
                0x00007280       0x24 contiki-sky.a(sicslowpan.o)
                0x00007280                sicslowpan_init
 .text.addr_context_lookup_by_prefix
                0x000072a4       0x4c contiki-sky.a(sicslowpan.o)
 .text.send_packet
                0x000072f0       0x1a contiki-sky.a(sicslowpan.o)
 .text.output   0x0000730a      0x6d0 contiki-sky.a(sicslowpan.o)
 .text.packet_sent
                0x000079da       0x22 contiki-sky.a(sicslowpan.o)
 .text.chksum   0x000079fc       0x32 contiki-sky.a(uip6.o)
 .text.upper_layer_chksum
                0x00007a2e       0x56 contiki-sky.a(uip6.o)
 .text.ext_hdr_options_process
                0x00007a84       0xda contiki-sky.a(uip6.o)
 .text.uip_add32
                0x00007b5e       0x68 contiki-sky.a(uip6.o)
                0x00007b5e                uip_add32
 .text.unlikely.uip_add_rcv_nxt
                0x00007bc6       0x2e contiki-sky.a(uip6.o)
 .text.uip_icmp6chksum
                0x00007bf4        0xa contiki-sky.a(uip6.o)
                0x00007bf4                uip_icmp6chksum
 .text.uip_tcpchksum
                0x00007bfe        0xa contiki-sky.a(uip6.o)
                0x00007bfe                uip_tcpchksum
 .text.uip_udpchksum
                0x00007c08        0xa contiki-sky.a(uip6.o)
                0x00007c08                uip_udpchksum
 .text.uip_init
                0x00007c12       0x56 contiki-sky.a(uip6.o)
                0x00007c12                uip_init
 .text.remove_ext_hdr
                0x00007c68       0x56 contiki-sky.a(uip6.o)
                0x00007c68                remove_ext_hdr
 .text.uip_udp_new
                0x00007cbe       0xac contiki-sky.a(uip6.o)
                0x00007cbe                uip_udp_new
 .text.uip_unlisten
                0x00007d6a       0x1e contiki-sky.a(uip6.o)
                0x00007d6a                uip_unlisten
 .text.uip_process
                0x00007d88      0xe18 contiki-sky.a(uip6.o)
                0x00007d88                uip_process
 .text.uip_htonl
                0x00008ba0       0x2e contiki-sky.a(uip6.o)
                0x00008ba0                uip_htonl
 .text.uip_ds6_list_loop
                0x00008bce       0x86 contiki-sky.a(uip-ds6.o)
                0x00008bce                uip_ds6_list_loop
 .text.uip_ds6_prefix_add
                0x00008c54       0x80 contiki-sky.a(uip-ds6.o)
                0x00008c54                uip_ds6_prefix_add
 .text.uip_ds6_is_addr_onlink
                0x00008cd4       0x54 contiki-sky.a(uip-ds6.o)
                0x00008cd4                uip_ds6_is_addr_onlink
 .text.uip_ds6_addr_lookup
                0x00008d28       0x2a contiki-sky.a(uip-ds6.o)
                0x00008d28                uip_ds6_addr_lookup
 .text.uip_ds6_get_link_local
                0x00008d52       0x3e contiki-sky.a(uip-ds6.o)
                0x00008d52                uip_ds6_get_link_local
 .text.uip_ds6_maddr_add
                0x00008d90       0x4c contiki-sky.a(uip-ds6.o)
                0x00008d90                uip_ds6_maddr_add
 .text.uip_ds6_addr_add
                0x00008ddc       0xc4 contiki-sky.a(uip-ds6.o)
                0x00008ddc                uip_ds6_addr_add
 .text.uip_ds6_maddr_lookup
                0x00008ea0       0x2a contiki-sky.a(uip-ds6.o)
                0x00008ea0                uip_ds6_maddr_lookup
 .text.uip_ds6_addr_rm
                0x00008eca       0x54 contiki-sky.a(uip-ds6.o)
                0x00008eca                uip_ds6_addr_rm
 .text.uip_ds6_periodic
                0x00008f1e       0x46 contiki-sky.a(uip-ds6.o)
                0x00008f1e                uip_ds6_periodic
 .text.uip_ds6_set_addr_iid
                0x00008f64       0x14 contiki-sky.a(uip-ds6.o)
                0x00008f64                uip_ds6_set_addr_iid
 .text.get_match_length
                0x00008f78       0x3e contiki-sky.a(uip-ds6.o)
                0x00008f78                get_match_length
 .text.uip_ds6_select_src
                0x00008fb6       0xaa contiki-sky.a(uip-ds6.o)
                0x00008fb6                uip_ds6_select_src
 .text.uip_ds6_compute_reachable_time
                0x00009060       0x3e contiki-sky.a(uip-ds6.o)
                0x00009060                uip_ds6_compute_reachable_time
 .text.uip_ds6_init
                0x0000909e      0x154 contiki-sky.a(uip-ds6.o)
                0x0000909e                uip_ds6_init
 .text.uip_ds6_nbr_rm
                0x000091f2       0x1e contiki-sky.a(uip-ds6-nbr.o)
                0x000091f2                uip_ds6_nbr_rm
 .text.uip_ds6_neighbors_init
                0x00009210       0x12 contiki-sky.a(uip-ds6-nbr.o)
                0x00009210                uip_ds6_neighbors_init
 .text.uip_ds6_nbr_add
                0x00009222       0x3e contiki-sky.a(uip-ds6-nbr.o)
                0x00009222                uip_ds6_nbr_add
 .text.uip_ds6_nbr_get_ll
                0x00009260        0xc contiki-sky.a(uip-ds6-nbr.o)
                0x00009260                uip_ds6_nbr_get_ll
 .text.uip_ds6_nbr_lookup
                0x0000926c       0x42 contiki-sky.a(uip-ds6-nbr.o)
                0x0000926c                uip_ds6_nbr_lookup
 .text.uip_ds6_nbr_ll_lookup
                0x000092ae        0xc contiki-sky.a(uip-ds6-nbr.o)
                0x000092ae                uip_ds6_nbr_ll_lookup
 .text.uip_ds6_nbr_ipaddr_from_lladdr
                0x000092ba        0x6 contiki-sky.a(uip-ds6-nbr.o)
                0x000092ba                uip_ds6_nbr_ipaddr_from_lladdr
 .text.uip_ds6_nbr_lladdr_from_ipaddr
                0x000092c0       0x12 contiki-sky.a(uip-ds6-nbr.o)
                0x000092c0                uip_ds6_nbr_lladdr_from_ipaddr
 .text.uip_ds6_link_neighbor_callback
                0x000092d2       0x36 contiki-sky.a(uip-ds6-nbr.o)
                0x000092d2                uip_ds6_link_neighbor_callback
 .text.call_route_callback
                0x00009308       0x4c contiki-sky.a(uip-ds6-route.o)
 .text.uip_ds6_route_init
                0x00009354       0x36 contiki-sky.a(uip-ds6-route.o)
                0x00009354                uip_ds6_route_init
 .text.uip_ds6_route_nexthop
                0x0000938a       0x1a contiki-sky.a(uip-ds6-route.o)
                0x0000938a                uip_ds6_route_nexthop
 .text.uip_ds6_route_head
                0x000093a4        0xa contiki-sky.a(uip-ds6-route.o)
                0x000093a4                uip_ds6_route_head
 .text.uip_ds6_route_next
                0x000093ae        0xe contiki-sky.a(uip-ds6-route.o)
                0x000093ae                uip_ds6_route_next
 .text.assert_nbr_routes_list_sane
                0x000093bc       0x48 contiki-sky.a(uip-ds6-route.o)
 .text.uip_ds6_route_is_nexthop
                0x00009404       0x1e contiki-sky.a(uip-ds6-route.o)
                0x00009404                uip_ds6_route_is_nexthop
 .text.uip_ds6_route_lookup
                0x00009422       0x8c contiki-sky.a(uip-ds6-route.o)
                0x00009422                uip_ds6_route_lookup
 .text.uip_ds6_route_rm
                0x000094ae       0xc6 contiki-sky.a(uip-ds6-route.o)
                0x000094ae                uip_ds6_route_rm
 .text.rm_routelist
                0x00009574       0x3c contiki-sky.a(uip-ds6-route.o)
 .text.rm_routelist_callback
                0x000095b0        0x6 contiki-sky.a(uip-ds6-route.o)
 .text.uip_ds6_route_add
                0x000095b6      0x128 contiki-sky.a(uip-ds6-route.o)
                0x000095b6                uip_ds6_route_add
 .text.uip_ds6_defrt_rm
                0x000096de       0x60 contiki-sky.a(uip-ds6-route.o)
                0x000096de                uip_ds6_defrt_rm
 .text.uip_ds6_defrt_lookup
                0x0000973e       0x36 contiki-sky.a(uip-ds6-route.o)
                0x0000973e                uip_ds6_defrt_lookup
 .text.uip_ds6_defrt_add
                0x00009774       0x8e contiki-sky.a(uip-ds6-route.o)
                0x00009774                uip_ds6_defrt_add
 .text.uip_ds6_defrt_choose
                0x00009802       0x3a contiki-sky.a(uip-ds6-route.o)
                0x00009802                uip_ds6_defrt_choose
 .text.uip_ds6_defrt_periodic
                0x0000983c       0x38 contiki-sky.a(uip-ds6-route.o)
                0x0000983c                uip_ds6_defrt_periodic
 .text.echo_reply_input
                0x00009874       0xb2 contiki-sky.a(uip-icmp6.o)
 .text.echo_request_input
                0x00009926       0xca contiki-sky.a(uip-icmp6.o)
 .text.uip_icmp6_input
                0x000099f0       0x44 contiki-sky.a(uip-icmp6.o)
                0x000099f0                uip_icmp6_input
 .text.uip_icmp6_register_input_handler
                0x00009a34        0xc contiki-sky.a(uip-icmp6.o)
                0x00009a34                uip_icmp6_register_input_handler
 .text.uip_icmp6_error_output
                0x00009a40      0x17c contiki-sky.a(uip-icmp6.o)
                0x00009a40                uip_icmp6_error_output
 .text.uip_icmp6_send
                0x00009bbc       0x96 contiki-sky.a(uip-icmp6.o)
                0x00009bbc                uip_icmp6_send
 .text.uip_icmp6_init
                0x00009c52       0x12 contiki-sky.a(uip-icmp6.o)
                0x00009c52                uip_icmp6_init
 .text.ns_input
                0x00009c64      0x266 contiki-sky.a(uip-nd6.o)
 .text.uip_nd6_init
                0x00009eca        0xa contiki-sky.a(uip-nd6.o)
                0x00009eca                uip_nd6_init
 .text.start_periodic_tcp_timer
                0x00009ed4       0x16 contiki-sky.a(tcpip.o)
 .text.tcpip_output
                0x00009eea       0x10 contiki-sky.a(tcpip.o)
                0x00009eea                tcpip_output
 .text.tcpip_set_outputfunc
                0x00009efa        0x6 contiki-sky.a(tcpip.o)
                0x00009efa                tcpip_set_outputfunc
 .text.udp_new  0x00009f00       0x1a contiki-sky.a(tcpip.o)
                0x00009f00                udp_new
 .text.tcpip_input
                0x00009f1a       0x16 contiki-sky.a(tcpip.o)
                0x00009f1a                tcpip_input
 .text.tcpip_ipv6_output
                0x00009f30       0xc0 contiki-sky.a(tcpip.o)
                0x00009f30                tcpip_ipv6_output
 .text.process_thread_tcpip_process
                0x00009ff0      0x1b6 contiki-sky.a(tcpip.o)
 .text.tcpip_uipcall
                0x0000a1a6       0x64 contiki-sky.a(tcpip.o)
                0x0000a1a6                tcpip_uipcall
 .text.uip_debug_ipaddr_print
                0x0000a20a       0xc6 contiki-sky.a(uip-debug.o)
                0x0000a20a                uip_debug_ipaddr_print
 .text.rpl_get_mode
                0x0000a2d0        0x6 contiki-sky.a(rpl.o)
                0x0000a2d0                rpl_get_mode
 .text.rpl_purge_routes
                0x0000a2d6       0x94 contiki-sky.a(rpl.o)
                0x0000a2d6                rpl_purge_routes
 .text.rpl_remove_routes
                0x0000a36a       0x22 contiki-sky.a(rpl.o)
                0x0000a36a                rpl_remove_routes
 .text.rpl_remove_routes_by_nexthop
                0x0000a38c       0x46 contiki-sky.a(rpl.o)
                0x0000a38c                rpl_remove_routes_by_nexthop
 .text.rpl_add_route
                0x0000a3d2       0x52 contiki-sky.a(rpl.o)
                0x0000a3d2                rpl_add_route
 .text.rpl_link_neighbor_callback
                0x0000a424       0x4c contiki-sky.a(rpl.o)
                0x0000a424                rpl_link_neighbor_callback
 .text.rpl_ipv6_neighbor_callback
                0x0000a470       0x1e contiki-sky.a(rpl.o)
                0x0000a470                rpl_ipv6_neighbor_callback
 .text.rpl_purge_dags
                0x0000a48e       0x6e contiki-sky.a(rpl.o)
                0x0000a48e                rpl_purge_dags
 .text.rpl_init
                0x0000a4fc       0x44 contiki-sky.a(rpl.o)
                0x0000a4fc                rpl_init
 .text.lollipop_greater_than
                0x0000a540       0x44 contiki-sky.a(rpl-dag.o)
 .text.acceptable_rank
                0x0000a584       0x50 contiki-sky.a(rpl-dag.o)
 .text.find_parent_any_dag_any_instance
                0x0000a5d4       0x14 contiki-sky.a(rpl-dag.o)
 .text.rpl_set_preferred_parent
                0x0000a5e8       0x30 contiki-sky.a(rpl-dag.o)
 .text.set_ip_from_prefix
                0x0000a618       0x38 contiki-sky.a(rpl-dag.o)
 .text.check_prefix
                0x0000a650       0x80 contiki-sky.a(rpl-dag.o)
 .text.rpl_dag_init
                0x0000a6d0        0xe contiki-sky.a(rpl-dag.o)
                0x0000a6d0                rpl_dag_init
 .text.rpl_get_parent
                0x0000a6de        0xc contiki-sky.a(rpl-dag.o)
                0x0000a6de                rpl_get_parent
 .text.rpl_rank_via_parent
                0x0000a6ea       0x2e contiki-sky.a(rpl-dag.o)
                0x0000a6ea                rpl_rank_via_parent
 .text.rpl_get_parent_lladdr
                0x0000a718        0xc contiki-sky.a(rpl-dag.o)
                0x0000a718                rpl_get_parent_lladdr
 .text.rpl_get_parent_ipaddr
                0x0000a724        0xa contiki-sky.a(rpl-dag.o)
                0x0000a724                rpl_get_parent_ipaddr
 .text.rpl_get_parent_link_stats
                0x0000a72e        0xa contiki-sky.a(rpl-dag.o)
                0x0000a72e                rpl_get_parent_link_stats
 .text.rpl_parent_is_fresh
                0x0000a738        0xa contiki-sky.a(rpl-dag.o)
                0x0000a738                rpl_parent_is_fresh
 .text.best_parent
                0x0000a742       0x80 contiki-sky.a(rpl-dag.o)
 .text.rpl_parent_is_reachable
                0x0000a7c2       0x46 contiki-sky.a(rpl-dag.o)
                0x0000a7c2                rpl_parent_is_reachable
 .text.rpl_set_prefix
                0x0000a808       0x8e contiki-sky.a(rpl-dag.o)
                0x0000a808                rpl_set_prefix
 .text.rpl_set_default_route
                0x0000a896       0x3e contiki-sky.a(rpl-dag.o)
                0x0000a896                rpl_set_default_route
 .text.rpl_alloc_instance
                0x0000a8d4       0x34 contiki-sky.a(rpl-dag.o)
                0x0000a8d4                rpl_alloc_instance
 .text.rpl_add_parent
                0x0000a908       0x3e contiki-sky.a(rpl-dag.o)
                0x0000a908                rpl_add_parent
 .text.rpl_find_parent
                0x0000a946       0x18 contiki-sky.a(rpl-dag.o)
                0x0000a946                rpl_find_parent
 .text.rpl_find_parent_any_dag
                0x0000a95e       0x20 contiki-sky.a(rpl-dag.o)
                0x0000a95e                rpl_find_parent_any_dag
 .text.rpl_select_parent
                0x0000a97e       0x66 contiki-sky.a(rpl-dag.o)
                0x0000a97e                rpl_select_parent
 .text.rpl_select_dag
                0x0000a9e4      0x17e contiki-sky.a(rpl-dag.o)
                0x0000a9e4                rpl_select_dag
 .text.rpl_nullify_parent
                0x0000ab62       0x60 contiki-sky.a(rpl-dag.o)
                0x0000ab62                rpl_nullify_parent
 .text.rpl_remove_parent
                0x0000abc2       0x16 contiki-sky.a(rpl-dag.o)
                0x0000abc2                rpl_remove_parent
 .text.nbr_callback
                0x0000abd8        0x6 contiki-sky.a(rpl-dag.o)
 .text.remove_parents.constprop.3
                0x0000abde       0x30 contiki-sky.a(rpl-dag.o)
 .text.rpl_free_dag
                0x0000ac0e       0x44 contiki-sky.a(rpl-dag.o)
                0x0000ac0e                rpl_free_dag
 .text.rpl_move_parent
                0x0000ac52       0x68 contiki-sky.a(rpl-dag.o)
                0x0000ac52                rpl_move_parent
 .text.rpl_get_dag
                0x0000acba       0x86 contiki-sky.a(rpl-dag.o)
                0x0000acba                rpl_get_dag
 .text.rpl_get_any_dag
                0x0000ad40       0x18 contiki-sky.a(rpl-dag.o)
                0x0000ad40                rpl_get_any_dag
 .text.rpl_get_instance
                0x0000ad58       0x1a contiki-sky.a(rpl-dag.o)
                0x0000ad58                rpl_get_instance
 .text.rpl_alloc_dag
                0x0000ad72       0x60 contiki-sky.a(rpl-dag.o)
                0x0000ad72                rpl_alloc_dag
 .text.rpl_repair_root
                0x0000add2       0x50 contiki-sky.a(rpl-dag.o)
                0x0000add2                rpl_repair_root
 .text.rpl_find_of
                0x0000ae22       0x10 contiki-sky.a(rpl-dag.o)
                0x0000ae22                rpl_find_of
 .text.rpl_set_root
                0x0000ae32      0x14e contiki-sky.a(rpl-dag.o)
                0x0000ae32                rpl_set_root
 .text.rpl_join_instance
                0x0000af80      0x158 contiki-sky.a(rpl-dag.o)
                0x0000af80                rpl_join_instance
 .text.rpl_local_repair
                0x0000b0d8       0x9a contiki-sky.a(rpl-dag.o)
                0x0000b0d8                rpl_local_repair
 .text.rpl_process_parent_event
                0x0000b172       0x8e contiki-sky.a(rpl-dag.o)
                0x0000b172                rpl_process_parent_event
 .text.rpl_recalculate_ranks
                0x0000b200       0x46 contiki-sky.a(rpl-dag.o)
                0x0000b200                rpl_recalculate_ranks
 .text.rpl_add_dag
                0x0000b246      0x114 contiki-sky.a(rpl-dag.o)
                0x0000b246                rpl_add_dag
 .text.rpl_process_dio
                0x0000b35a      0x332 contiki-sky.a(rpl-dag.o)
                0x0000b35a                rpl_process_dio
 .text.update_hbh_header
                0x0000b68c       0xcc contiki-sky.a(rpl-ext-header.)
 .text.insert_hbh_header
                0x0000b758       0x9c contiki-sky.a(rpl-ext-header.)
 .text.rpl_verify_hbh_header
                0x0000b7f4      0x104 contiki-sky.a(rpl-ext-header.)
                0x0000b7f4                rpl_verify_hbh_header
 .text.rpl_remove_header
                0x0000b8f8       0x7a contiki-sky.a(rpl-ext-header.)
                0x0000b8f8                rpl_remove_header
 .text.rpl_update_header
                0x0000b972       0x64 contiki-sky.a(rpl-ext-header.)
                0x0000b972                rpl_update_header
 .text.prepare_for_dao_fwd
                0x0000b9d6       0x28 contiki-sky.a(rpl-icmp6.o)
 .text.get32    0x0000b9fe       0x46 contiki-sky.a(rpl-icmp6.o)
 .text.set32    0x0000ba44       0x2a contiki-sky.a(rpl-icmp6.o)
 .text.get16    0x0000ba6e        0xe contiki-sky.a(rpl-icmp6.o)
 .text.set16    0x0000ba7c       0x10 contiki-sky.a(rpl-icmp6.o)
 .text.dao_ack_input
                0x0000ba8c        0xa contiki-sky.a(rpl-icmp6.o)
 .text.dio_input
                0x0000ba96      0x2aa contiki-sky.a(rpl-icmp6.o)
 .text.rpl_icmp6_update_nbr_table
                0x0000bd40       0x30 contiki-sky.a(rpl-icmp6.o)
                0x0000bd40                rpl_icmp6_update_nbr_table
 .text.dao_input
                0x0000bd70      0x29a contiki-sky.a(rpl-icmp6.o)
 .text.dis_output
                0x0000c00a       0x50 contiki-sky.a(rpl-icmp6.o)
                0x0000c00a                dis_output
 .text.dio_output
                0x0000c05a      0x276 contiki-sky.a(rpl-icmp6.o)
                0x0000c05a                dio_output
 .text.dis_input
                0x0000c2d0       0x3e contiki-sky.a(rpl-icmp6.o)
 .text.dao_output_target
                0x0000c30e      0x114 contiki-sky.a(rpl-icmp6.o)
                0x0000c30e                dao_output_target
 .text.dao_output
                0x0000c422       0xb2 contiki-sky.a(rpl-icmp6.o)
                0x0000c422                dao_output
 .text.rpl_icmp6_register_handlers
                0x0000c4d4       0x22 contiki-sky.a(rpl-icmp6.o)
                0x0000c4d4                rpl_icmp6_register_handlers
 .text.reset    0x0000c4f6        0x2 contiki-sky.a(rpl-mrhof.o)
 .text.update_metric_container
                0x0000c4f8        0x6 contiki-sky.a(rpl-mrhof.o)
 .text.parent_link_metric
                0x0000c4fe       0x10 contiki-sky.a(rpl-mrhof.o)
 .text.parent_has_usable_link
                0x0000c50e       0x14 contiki-sky.a(rpl-mrhof.o)
 .text.best_dag
                0x0000c522       0x34 contiki-sky.a(rpl-mrhof.o)
 .text.parent_path_cost
                0x0000c556       0x44 contiki-sky.a(rpl-mrhof.o)
 .text.parent_is_acceptable
                0x0000c59a       0x2a contiki-sky.a(rpl-mrhof.o)
 .text.best_parent
                0x0000c5c4       0x88 contiki-sky.a(rpl-mrhof.o)
 .text.rank_via_parent
                0x0000c64c       0x56 contiki-sky.a(rpl-mrhof.o)
 .text.handle_unicast_dio_timer
                0x0000c6a2       0x1c contiki-sky.a(rpl-timers.o)
 .text.new_dio_interval
                0x0000c6be       0x92 contiki-sky.a(rpl-timers.o)
 .text.handle_periodic_timer
                0x0000c750       0x50 contiki-sky.a(rpl-timers.o)
 .text.set_dao_lifetime_timer.part.0
                0x0000c7a0       0x66 contiki-sky.a(rpl-timers.o)
 .text.schedule_dao
                0x0000c806       0x90 contiki-sky.a(rpl-timers.o)
 .text.handle_dio_timer
                0x0000c896       0x88 contiki-sky.a(rpl-timers.o)
 .text.handle_dao_timer
                0x0000c91e       0x72 contiki-sky.a(rpl-timers.o)
 .text.rpl_reset_periodic_timer
                0x0000c990       0x60 contiki-sky.a(rpl-timers.o)
                0x0000c990                rpl_reset_periodic_timer
 .text.rpl_reset_dio_timer
                0x0000c9f0       0x18 contiki-sky.a(rpl-timers.o)
                0x0000c9f0                rpl_reset_dio_timer
 .text.rpl_schedule_dao
                0x0000ca08        0xc contiki-sky.a(rpl-timers.o)
                0x0000ca08                rpl_schedule_dao
 .text.rpl_schedule_unicast_dio_immediately
                0x0000ca14       0x16 contiki-sky.a(rpl-timers.o)
                0x0000ca14                rpl_schedule_unicast_dio_immediately
 .text.get_probing_delay
                0x0000ca2a       0x40 contiki-sky.a(rpl-timers.o)
                0x0000ca2a                get_probing_delay
 .text.get_probing_target
                0x0000ca6a       0xf6 contiki-sky.a(rpl-timers.o)
                0x0000ca6a                get_probing_target
 .text.rpl_schedule_probing
                0x0000cb60       0x26 contiki-sky.a(rpl-timers.o)
                0x0000cb60                rpl_schedule_probing
 .text.handle_probing_timer
                0x0000cb86       0x3c contiki-sky.a(rpl-timers.o)
 .text.input_packet
                0x0000cbc2        0x6 contiki-sky.a(csma.o)
 .text.on       0x0000cbc8        0x6 contiki-sky.a(csma.o)
 .text.off      0x0000cbce        0x6 contiki-sky.a(csma.o)
 .text.channel_check_interval
                0x0000cbd4       0x10 contiki-sky.a(csma.o)
 .text.transmit_packet_list
                0x0000cbe4       0x24 contiki-sky.a(csma.o)
 .text.schedule_transmission
                0x0000cc08       0x96 contiki-sky.a(csma.o)
 .text.send_packet
                0x0000cc9e      0x164 contiki-sky.a(csma.o)
 .text.init     0x0000ce02       0x1a contiki-sky.a(csma.o)
 .text.tx_done  0x0000ce1c       0x9a contiki-sky.a(csma.o)
 .text.packet_sent
                0x0000ceb6       0xd2 contiki-sky.a(csma.o)
 .text.parse    0x0000cf88       0xa6 contiki-sky.a(framer-802154.o)
 .text.create_frame.isra.0
                0x0000d02e      0x118 contiki-sky.a(framer-802154.o)
 .text.create   0x0000d146        0x8 contiki-sky.a(framer-802154.o)
 .text.hdr_length
                0x0000d14e        0x8 contiki-sky.a(framer-802154.o)
 .text.mac_call_sent_callback
                0x0000d156       0x14 contiki-sky.a(mac.o)
                0x0000d156                mac_call_sent_callback
 .text.linkaddr_copy
                0x0000d16a        0x8 contiki-sky.a(linkaddr.o)
                0x0000d16a                linkaddr_copy
 .text.linkaddr_cmp
                0x0000d172       0x12 contiki-sky.a(linkaddr.o)
                0x0000d172                linkaddr_cmp
 .text.linkaddr_set_node_addr
                0x0000d184        0xc contiki-sky.a(linkaddr.o)
                0x0000d184                linkaddr_set_node_addr
 .text.periodic
                0x0000d190       0x28 contiki-sky.a(link-stats.o)
 .text.link_stats_from_lladdr
                0x0000d1b8        0xc contiki-sky.a(link-stats.o)
                0x0000d1b8                link_stats_from_lladdr
 .text.link_stats_is_fresh
                0x0000d1c4       0x30 contiki-sky.a(link-stats.o)
                0x0000d1c4                link_stats_is_fresh
 .text.link_stats_packet_sent
                0x0000d1f4       0xda contiki-sky.a(link-stats.o)
                0x0000d1f4                link_stats_packet_sent
 .text.link_stats_input_callback
                0x0000d2ce       0xbc contiki-sky.a(link-stats.o)
                0x0000d2ce                link_stats_input_callback
 .text.link_stats_init
                0x0000d38a       0x22 contiki-sky.a(link-stats.o)
                0x0000d38a                link_stats_init
 .text.index_from_key
                0x0000d3ac       0x48 contiki-sky.a(nbr-table.o)
 .text.item_from_key
                0x0000d3f4       0x34 contiki-sky.a(nbr-table.o)
 .text.nbr_set_bit
                0x0000d428       0x8e contiki-sky.a(nbr-table.o)
 .text.index_from_lladdr
                0x0000d4b6       0x42 contiki-sky.a(nbr-table.o)
 .text.nbr_get_bit.constprop.0
                0x0000d4f8       0x62 contiki-sky.a(nbr-table.o)
 .text.remove_key
                0x0000d55a       0x60 contiki-sky.a(nbr-table.o)
 .text.nbr_table_register
                0x0000d5ba       0x28 contiki-sky.a(nbr-table.o)
                0x0000d5ba                nbr_table_register
 .text.nbr_table_next
                0x0000d5e2       0x90 contiki-sky.a(nbr-table.o)
                0x0000d5e2                nbr_table_next
 .text.nbr_table_head
                0x0000d672       0x36 contiki-sky.a(nbr-table.o)
                0x0000d672                nbr_table_head
 .text.nbr_table_add_lladdr
                0x0000d6a8      0x136 contiki-sky.a(nbr-table.o)
                0x0000d6a8                nbr_table_add_lladdr
 .text.nbr_table_get_from_lladdr
                0x0000d7de       0x48 contiki-sky.a(nbr-table.o)
                0x0000d7de                nbr_table_get_from_lladdr
 .text.nbr_table_remove
                0x0000d826       0x32 contiki-sky.a(nbr-table.o)
                0x0000d826                nbr_table_remove
 .text.nbr_table_lock
                0x0000d858       0x10 contiki-sky.a(nbr-table.o)
                0x0000d858                nbr_table_lock
 .text.nbr_table_unlock
                0x0000d868       0x10 contiki-sky.a(nbr-table.o)
                0x0000d868                nbr_table_unlock
 .text.nbr_table_get_lladdr
                0x0000d878       0x5a contiki-sky.a(nbr-table.o)
                0x0000d878                nbr_table_get_lladdr
 .text.nbr_table_update_lladdr
                0x0000d8d2       0x68 contiki-sky.a(nbr-table.o)
                0x0000d8d2                nbr_table_update_lladdr
 .text.packetbuf_hdrreduce
                0x0000d93a       0x1a contiki-sky.a(packetbuf.o)
                0x0000d93a                packetbuf_hdrreduce
 .text.packetbuf_set_datalen
                0x0000d954        0x6 contiki-sky.a(packetbuf.o)
                0x0000d954                packetbuf_set_datalen
 .text.packetbuf_hdrptr
                0x0000d95a        0x6 contiki-sky.a(packetbuf.o)
                0x0000d95a                packetbuf_hdrptr
 .text.packetbuf_datalen
                0x0000d960        0x6 contiki-sky.a(packetbuf.o)
                0x0000d960                packetbuf_datalen
 .text.packetbuf_hdrlen
                0x0000d966        0xa contiki-sky.a(packetbuf.o)
                0x0000d966                packetbuf_hdrlen
 .text.packetbuf_dataptr
                0x0000d970        0xc contiki-sky.a(packetbuf.o)
                0x0000d970                packetbuf_dataptr
 .text.packetbuf_copyto
                0x0000d97c       0x46 contiki-sky.a(packetbuf.o)
                0x0000d97c                packetbuf_copyto
 .text.packetbuf_totlen
                0x0000d9c2        0xc contiki-sky.a(packetbuf.o)
                0x0000d9c2                packetbuf_totlen
 .text.packetbuf_hdralloc
                0x0000d9ce       0x3a contiki-sky.a(packetbuf.o)
                0x0000d9ce                packetbuf_hdralloc
 .text.packetbuf_attr_clear
                0x0000da08       0x28 contiki-sky.a(packetbuf.o)
                0x0000da08                packetbuf_attr_clear
 .text.packetbuf_clear
                0x0000da30       0x12 contiki-sky.a(packetbuf.o)
                0x0000da30                packetbuf_clear
 .text.packetbuf_copyfrom
                0x0000da42       0x2e contiki-sky.a(packetbuf.o)
                0x0000da42                packetbuf_copyfrom
 .text.packetbuf_attr_copyto
                0x0000da70       0x22 contiki-sky.a(packetbuf.o)
                0x0000da70                packetbuf_attr_copyto
 .text.packetbuf_attr_copyfrom
                0x0000da92       0x24 contiki-sky.a(packetbuf.o)
                0x0000da92                packetbuf_attr_copyfrom
 .text.packetbuf_holds_broadcast
                0x0000dab6        0xe contiki-sky.a(packetbuf.o)
                0x0000dab6                packetbuf_holds_broadcast
 .text.queuebuf_init
                0x0000dac4       0x12 contiki-sky.a(queuebuf.o)
                0x0000dac4                queuebuf_init
 .text.queuebuf_numfree
                0x0000dad6        0xa contiki-sky.a(queuebuf.o)
                0x0000dad6                queuebuf_numfree
 .text.queuebuf_new_from_packetbuf
                0x0000dae0       0x52 contiki-sky.a(queuebuf.o)
                0x0000dae0                queuebuf_new_from_packetbuf
 .text.queuebuf_update_attr_from_packetbuf
                0x0000db32       0x12 contiki-sky.a(queuebuf.o)
                0x0000db32                queuebuf_update_attr_from_packetbuf
 .text.queuebuf_update_from_packetbuf
                0x0000db44       0x22 contiki-sky.a(queuebuf.o)
                0x0000db44                queuebuf_update_from_packetbuf
 .text.queuebuf_free
                0x0000db66       0x2a contiki-sky.a(queuebuf.o)
                0x0000db66                queuebuf_free
 .text.queuebuf_to_packetbuf
                0x0000db90       0x32 contiki-sky.a(queuebuf.o)
                0x0000db90                queuebuf_to_packetbuf
 .text.queuebuf_attr
                0x0000dbc2        0xe contiki-sky.a(queuebuf.o)
                0x0000dbc2                queuebuf_attr
 .text.duty_cycle
                0x0000dbd0        0x6 contiki-sky.a(contikimac.o)
 .text.init     0x0000dbd6       0x2a contiki-sky.a(contikimac.o)
 .text.on       0x0000dc00       0x1a contiki-sky.a(contikimac.o)
 .text.off      0x0000dc1a       0x22 contiki-sky.a(contikimac.o)
 .text.recv_burst_off
                0x0000dc3c        0xa contiki-sky.a(contikimac.o)
 .text.turn_off
                0x0000dc46       0x20 contiki-sky.a(contikimac.o)
 .text.turn_on  0x0000dc66       0x30 contiki-sky.a(contikimac.o)
 .text.schedule_powercycle_fixed.part.4
                0x0000dc96       0x32 contiki-sky.a(contikimac.o)
 .text.powercycle_turn_radio_off
                0x0000dcc8       0x30 contiki-sky.a(contikimac.o)
 .text.powercycle_wrapper
                0x0000dcf8      0x1c2 contiki-sky.a(contikimac.o)
 .text.input_packet
                0x0000deba       0xb2 contiki-sky.a(contikimac.o)
 .text.send_packet.isra.8
                0x0000df6c      0x1ec contiki-sky.a(contikimac.o)
 .text.qsend_list
                0x0000e158       0xd2 contiki-sky.a(contikimac.o)
 .text.qsend_packet
                0x0000e22a       0x28 contiki-sky.a(contikimac.o)
 .text.init     0x0000e252        0x2 contiki-sky.a(nullsec.o)
 .text.send     0x0000e254        0xa contiki-sky.a(nullsec.o)
 .text.input    0x0000e25e        0x6 contiki-sky.a(nullsec.o)
 .text.spi_init
                0x0000e264       0x32 contiki-sky.a(spi.o)
                0x0000e264                spi_init
 .text.compower_accumulate
                0x0000e296       0x72 contiki-sky.a(compower.o)
                0x0000e296                compower_accumulate
 .text.compower_clear
                0x0000e308       0x12 contiki-sky.a(compower.o)
                0x0000e308                compower_clear
 .text.compower_attrconv
                0x0000e31a       0x10 contiki-sky.a(compower.o)
                0x0000e31a                compower_attrconv
 .text.stimer_set
                0x0000e32a       0x1c contiki-sky.a(stimer.o)
                0x0000e32a                stimer_set
 .text.stimer_expired
                0x0000e346       0x30 contiki-sky.a(stimer.o)
                0x0000e346                stimer_expired
 .text.memb_init
                0x0000e376       0x36 contiki-sky.a(memb.o)
                0x0000e376                memb_init
 .text.memb_alloc
                0x0000e3ac       0x3e contiki-sky.a(memb.o)
                0x0000e3ac                memb_alloc
 .text.memb_free
                0x0000e3ea       0x3a contiki-sky.a(memb.o)
                0x0000e3ea                memb_free
 .text.memb_inmemb
                0x0000e424       0x2e contiki-sky.a(memb.o)
                0x0000e424                memb_inmemb
 .text.memb_numfree
                0x0000e452       0x26 contiki-sky.a(memb.o)
                0x0000e452                memb_numfree
 .text.update_nbr
                0x0000e478       0xea contiki-sky.a(rpl-nbr-policy.)
 .text.handle_periodic_timer
                0x0000e562        0xe contiki-sky.a(rpl-nbr-policy.)
 .text.find_removable_dis
                0x0000e570       0x16 contiki-sky.a(rpl-nbr-policy.)
                0x0000e570                find_removable_dis
 .text.find_removable_dio
                0x0000e586       0x3e contiki-sky.a(rpl-nbr-policy.)
                0x0000e586                find_removable_dio
 .text.find_removable_dao
                0x0000e5c4       0x34 contiki-sky.a(rpl-nbr-policy.)
                0x0000e5c4                find_removable_dao
 .text.rpl_nbr_policy_find_removable
                0x0000e5f8       0x30 contiki-sky.a(rpl-nbr-policy.)
                0x0000e5f8                rpl_nbr_policy_find_removable
 .text.frame802154_get_pan_id
                0x0000e628        0x6 contiki-sky.a(frame802154.o)
                0x0000e628                frame802154_get_pan_id
 .text.frame802154_has_panid
                0x0000e62e       0xdc contiki-sky.a(frame802154.o)
                0x0000e62e                frame802154_has_panid
 .text.field_len
                0x0000e70a       0xb2 contiki-sky.a(frame802154.o)
 .text.frame802154_is_broadcast_addr
                0x0000e7bc       0x24 contiki-sky.a(frame802154.o)
                0x0000e7bc                frame802154_is_broadcast_addr
 .text.frame802154_hdrlen
                0x0000e7e0       0x32 contiki-sky.a(frame802154.o)
                0x0000e7e0                frame802154_hdrlen
 .text.frame802154_create_fcf
                0x0000e812       0x96 contiki-sky.a(frame802154.o)
                0x0000e812                frame802154_create_fcf
 .text.frame802154_create
                0x0000e8a8       0xe4 contiki-sky.a(frame802154.o)
                0x0000e8a8                frame802154_create
 .text.frame802154_parse_fcf
                0x0000e98c       0xbe contiki-sky.a(frame802154.o)
                0x0000e98c                frame802154_parse_fcf
 .text.frame802154_parse
                0x0000ea4a      0x18c contiki-sky.a(frame802154.o)
                0x0000ea4a                frame802154_parse
 .text.mac_sequence_is_duplicate
                0x0000ebd6       0x6e contiki-sky.a(mac-sequence.o)
                0x0000ebd6                mac_sequence_is_duplicate
 .text.mac_sequence_register_seqno
                0x0000ec44       0x88 contiki-sky.a(mac-sequence.o)
                0x0000ec44                mac_sequence_register_seqno
 .text.libgcc   0x0000eccc       0x2c /usr/lib/gcc/msp430/4.6.3/mmpy-16/libgcc.a(_mulsi3.o)
                0x0000eccc                __mulsi3
 .text.libgcc   0x0000ecf8       0x22 /usr/lib/gcc/msp430/4.6.3/mmpy-16/libgcc.a(_udivmod16.o)
                0x0000ecf8                __udivhi3
                0x0000ecf8                __ext_udivmod16
                0x0000ed12                __umodhi3
 .text.libgcc   0x0000ed1a       0x3a /usr/lib/gcc/msp430/4.6.3/mmpy-16/libgcc.a(_divmod16.o)
                0x0000ed1a                __ext_divmod16
                0x0000ed1a                __divhi3
                0x0000ed4c                __modhi3
 .text.libgcc   0x0000ed54       0x40 /usr/lib/gcc/msp430/4.6.3/mmpy-16/libgcc.a(_udivmod32.o)
                0x0000ed54                __udivsi3
                0x0000ed54                __ext_udivmod32
                0x0000ed8a                __umodsi3
 .text.libgcc   0x0000ed94       0x4c /usr/lib/gcc/msp430/4.6.3/mmpy-16/libgcc.a(_divmod32.o)
                0x0000ed94                __ext_divmod32
                0x0000ed94                __divsi3
                0x0000edd6                __modsi3
 .text          0x0000ede0       0x20 /usr/lib/gcc/msp430/4.6.3/../../../../msp430/lib/mmpy-16/libc.a(memcmp.o)
                0x0000ede0                memcmp
 .text          0x0000ee00       0xfa /usr/lib/gcc/msp430/4.6.3/../../../../msp430/lib/mmpy-16/libc.a(memcpy.o)
                0x0000ee00                memcpy
 .text          0x0000eefa       0xfa /usr/lib/gcc/msp430/4.6.3/../../../../msp430/lib/mmpy-16/libc.a(memmove.o)
                0x0000eefa                memmove
 .text          0x0000eff4       0x6a /usr/lib/gcc/msp430/4.6.3/../../../../msp430/lib/mmpy-16/libc.a(memset.o)
                0x0000eff4                memset
 .text          0x0000f05e       0x1e /usr/lib/gcc/msp430/4.6.3/../../../../msp430/lib/mmpy-16/libc.a(printf.o)
                0x0000f05e                printf
                0x0000f06e                vprintf
 .text          0x0000f07c      0x836 /usr/lib/gcc/msp430/4.6.3/../../../../msp430/lib/mmpy-16/libc.a(vuprintf.o)
                0x0000f214                vuprintf
 .text          0x0000f8b2       0x2c /usr/lib/gcc/msp430/4.6.3/../../../../msp430/lib/mmpy-16/libc.a(puts.o)
                0x0000f8b2                puts
 .text          0x0000f8de       0x54 /usr/lib/gcc/msp430/4.6.3/../../../../msp430/lib/mmpy-16/libc.a(rand.o)
                0x0000f8de                rand_r
                0x0000f902                rand
                0x0000f928                srand
 .text.libgcc   0x0000f932       0xf0 /usr/lib/gcc/msp430/4.6.3/mmpy-16/libgcc.a(_udivmod64.o)
                0x0000f932                __xabi_udivmod64
                0x0000f990                __udivdi3
                0x0000f9b6                __umoddi3
                0x0000f9e4                __udivmoddi4
 .text.crt0     0x0000fa22        0x2 /usr/lib/gcc/msp430/4.6.3/mmpy-16/libcrt0.a(_unexpected_.o)
                0x0000fa22                _unexpected_
                0x0000fa24                . = ALIGN (0x2)

.rodata         0x0000fa24      0x576
                0x0000fa24                . = ALIGN (0x2)
 *(.rodata .rodata.* .gnu.linkonce.r.*)
 .rodata        0x0000fa24      0x134 udp-server.co
                0x0000fb40                autostart_processes
 .rodata        0x0000fb58       0xca obj_sky/collect-common.o
 .rodata        0x0000fc22      0x12e obj_sky/contiki-sky-main.o
 .rodata        0x0000fd50       0x10 contiki-sky.a(button-sensor.o)
                0x0000fd58                button_sensor
 .rodata        0x0000fd60        0x8 contiki-sky.a(sensors.o)
 .rodata        0x0000fd68       0x70 contiki-sky.a(cc2420.o)
                0x0000fd9a                cc2420_aes_128_driver
                0x0000fd9e                cc2420_driver
 .rodata        0x0000fdd8        0xf contiki-sky.a(ctimer.o)
 .rodata        0x0000fde7        0xc contiki-sky.a(etimer.o)
 *fill*         0x0000fdf3        0x1 00
 .rodata        0x0000fdf4       0x24 contiki-sky.a(sicslowpan.o)
                0x0000fe00                sicslowpan_driver
                0x0000fe06                llprefix
                0x0000fe08                unc_mxconf
                0x0000fe0c                unc_ctxconf
                0x0000fe10                unc_llconf
 .rodata        0x0000fe18       0x20 contiki-sky.a(uip6.o)
 .rodata        0x0000fe38       0xd5 contiki-sky.a(uip-ds6-route.o)
 .rodata        0x0000ff0d        0xd contiki-sky.a(tcpip.o)
 .rodata        0x0000ff1a       0x28 contiki-sky.a(uip-debug.o)
 .rodata        0x0000ff42       0x14 contiki-sky.a(csma.o)
                0x0000ff48                csma_driver
 .rodata        0x0000ff56        0x6 contiki-sky.a(framer-802154.o)
                0x0000ff56                framer_802154
 .rodata        0x0000ff5c        0x8 contiki-sky.a(linkaddr.o)
                0x0000ff5c                linkaddr_null
 .rodata        0x0000ff64       0x1c contiki-sky.a(contikimac.o)
                0x0000ff70                contikimac_driver
 .rodata        0x0000ff80       0x10 contiki-sky.a(nullsec.o)
                0x0000ff88                nullsec_driver
 .rodata        0x0000ff90        0x2 contiki-sky.a(frame802154.o)
 .rodata        0x0000ff92        0x7 /usr/lib/gcc/msp430/4.6.3/../../../../msp430/lib/mmpy-16/libc.a(vuprintf.o)
                0x0000ff9a                . = ALIGN (0x2)
 *fill*         0x0000ff99        0x1 00
                0x0000ff9a                _etext = .

.data           0x00001100       0xf6 load address 0x0000ff9a
                0x00001100                . = ALIGN (0x2)
                0x00001100                PROVIDE (__data_start, .)
 *(.data .data.* .gnu.linkonce.d.*)
 .data          0x00001100        0xa udp-server.co
                0x00001100                udp_server_process
 .data          0x0000110a        0x4 contiki-sky.a(contiki-sky-pla)
                0x0000110a                sensors
 .data          0x0000110e        0xa contiki-sky.a(sensors.o)
                0x0000110e                sensors_process
 .data          0x00001118        0xc contiki-sky.a(cc2420.o)
                0x00001118                cc2420_process
 .data          0x00001124        0x2 contiki-sky.a(msp430.o)
 .data          0x00001126        0xa contiki-sky.a(ctimer.o)
                0x00001126                ctimer_process
 .data          0x00001130        0xa contiki-sky.a(etimer.o)
                0x00001130                etimer_process
 .data          0x0000113a        0xa contiki-sky.a(uip-ds6-nbr.o)
                0x0000113a                ds6_neighbors
 .data          0x00001144       0x22 contiki-sky.a(uip-ds6-route.o)
                0x00001144                nbr_routes
 .data          0x00001166        0xc contiki-sky.a(uip-icmp6.o)
 .data          0x00001172        0x6 contiki-sky.a(uip-nd6.o)
 .data          0x00001178        0xa contiki-sky.a(tcpip.o)
                0x00001178                tcpip_process
 .data          0x00001182        0xa contiki-sky.a(rpl-dag.o)
                0x00001182                rpl_parents
 .data          0x0000118c       0x1a contiki-sky.a(rpl-icmp6.o)
 .data          0x000011a6       0x12 contiki-sky.a(rpl-mrhof.o)
                0x000011a6                rpl_mrhof
 .data          0x000011b8       0x18 contiki-sky.a(csma.o)
 .data          0x000011d0        0x8 contiki-sky.a(link-stats.o)
 .data          0x000011d8        0x8 contiki-sky.a(nbr-table.o)
 .data          0x000011e0       0x10 contiki-sky.a(queuebuf.o)
 .data          0x000011f0        0x2 contiki-sky.a(frame802154.o)
 .data          0x000011f2        0x4 /usr/lib/gcc/msp430/4.6.3/../../../../msp430/lib/mmpy-16/libc.a(rand.o)
                0x000011f6                . = ALIGN (0x2)
                0x000011f6                _edata = .
                0x0000ff9a                PROVIDE (__data_load_start, LOADADDR (.data))
                0x000000f6                PROVIDE (__data_size, SIZEOF (.data))

.bss            0x000011f6     0x1cd2 load address 0x00010090
                0x000011f6                PROVIDE (__bss_start, .)
 *(.bss .bss.*)
 .bss           0x000011f6        0x2 udp-server.co
 .bss           0x000011f8       0x1c obj_sky/collect-common.o
 .bss           0x00001214        0xc obj_sky/contiki-sky-main.o
 .bss           0x00001220        0x8 contiki-sky.a(button-sensor.o)
 .bss           0x00001228        0x2 contiki-sky.a(node-id.o)
                0x00001228                node_id
 .bss           0x0000122a        0x6 contiki-sky.a(sensors.o)
 .bss           0x00001230        0xa contiki-sky.a(cc2420.o)
 .bss           0x0000123a       0x9a contiki-sky.a(uart1.o)
 .bss           0x000012d4        0xa contiki-sky.a(clock.o)
 .bss           0x000012de        0x1 contiki-sky.a(leds.o)
 *fill*         0x000012df        0x1 00
 .bss           0x000012e0        0x2 contiki-sky.a(watchdog.o)
 .bss           0x000012e2        0x4 contiki-sky.a(ctimer.o)
 .bss           0x000012e6        0x6 contiki-sky.a(etimer.o)
 .bss           0x000012ec       0x38 contiki-sky.a(process.o)
                0x000012ec                process_current
                0x000012ee                process_list
 .bss           0x00001324        0x2 contiki-sky.a(rtimer.o)
 .bss           0x00001326      0x6e6 contiki-sky.a(sicslowpan.o)
 .bss           0x00001a0c        0xc contiki-sky.a(uip6.o)
                0x00001a0c                uip_ext_opt_offset
                0x00001a0e                uip_ext_len
                0x00001a10                uip_ext_bitmap
 .bss           0x00001a18       0x18 contiki-sky.a(uip-ds6.o)
 .bss           0x00001a30      0x120 contiki-sky.a(uip-ds6-nbr.o)
 .bss           0x00001b50      0x2e2 contiki-sky.a(uip-ds6-route.o)
 .bss           0x00001e32       0x14 contiki-sky.a(uip-icmp6.o)
 .bss           0x00001e46        0x8 contiki-sky.a(uip-nd6.o)
 .bss           0x00001e4e       0x30 contiki-sky.a(tcpip.o)
 .bss           0x00001e7e        0x2 contiki-sky.a(rpl.o)
 .bss           0x00001e80       0x60 contiki-sky.a(rpl-dag.o)
 .bss           0x00001ee0       0x18 contiki-sky.a(rpl-timers.o)
 .bss           0x00001ef8       0xc0 contiki-sky.a(csma.o)
 .bss           0x00001fb8        0x2 contiki-sky.a(framer-802154.o)
 .bss           0x00001fba       0xa0 contiki-sky.a(link-stats.o)
 .bss           0x0000205a       0xe4 contiki-sky.a(nbr-table.o)
 .bss           0x0000213e       0x86 contiki-sky.a(packetbuf.o)
 .bss           0x000021c4      0x5a0 contiki-sky.a(queuebuf.o)
 .bss           0x00002764       0x32 contiki-sky.a(contikimac.o)
 .bss           0x00002796        0x8 contiki-sky.a(compower.o)
 .bss           0x0000279e       0x20 contiki-sky.a(rpl-nbr-policy.)
 .bss           0x000027be       0xe0 contiki-sky.a(mac-sequence.o)
 *(COMMON)
 COMMON         0x0000289e        0x2 contiki-sky.a(contiki-sky-pla)
                0x0000289e                sensors_flags
 COMMON         0x000028a0        0x8 contiki-sky.a(ds2411.o)
                0x000028a0                ds2411_id
 COMMON         0x000028a8        0x1 contiki-sky.a(sensors.o)
                0x000028a8                sensors_event
 *fill*         0x000028a9        0x1 00
 COMMON         0x000028aa       0x10 contiki-sky.a(cc2420.o)
                0x000028aa                cc2420_last_rssi
                0x000028ac                cc2420_sfd_start_time
                0x000028ae                cc2420_time_of_departure
                0x000028b0                cc2420_time_of_arrival
                0x000028b2                cc2420_last_correlation
                0x000028b4                cc2420_authority_level_of_sender
                0x000028b6                cc2420_sfd_counter
                0x000028b8                cc2420_sfd_end_time
 COMMON         0x000028ba        0x2 contiki-sky.a(msp430.o)
                0x000028ba                msp430_dco_required
 COMMON         0x000028bc       0x56 contiki-sky.a(energest.o)
                0x000028bc                energest_total_time
                0x000028ec                energest_total_count
                0x000028ee                energest_current_mode
                0x000028fa                energest_current_time
 COMMON         0x00002912        0x1 contiki-sky.a(process.o)
                0x00002912                process_maxevents
 *fill*         0x00002913        0x1 00
 COMMON         0x00002914      0x304 contiki-sky.a(uip6.o)
                0x00002914                uip_len
                0x00002916                uip_sappdata
                0x00002918                uip_acc32
                0x0000291c                uip_lladdr
                0x00002924                uip_aligned_buf
                0x00002a14                uip_flags
                0x00002a16                uip_next_hdr
                0x00002a18                uip_udp_conn
                0x00002a1a                uip_appdata
                0x00002a1c                uip_conn
                0x00002a1e                uip_conns
                0x00002ace                uip_listenports
                0x00002ade                uip_slen
                0x00002ae0                uip_udp_conns
 COMMON         0x00002c18      0x15c contiki-sky.a(uip-ds6.o)
                0x00002c18                uip_ds6_timer_ra
                0x00002c20                uip_ds6_if
                0x00002d0c                uip_ds6_netif_addr_list_offset
                0x00002d0d                uip_ds6_addr_size
                0x00002d0e                uip_ds6_prefix_list
                0x00002d68                uip_ds6_timer_periodic
 COMMON         0x00002d74        0x1 contiki-sky.a(tcpip.o)
                0x00002d74                tcpip_event
 *fill*         0x00002d75        0x1 00
 COMMON         0x00002d76      0x100 contiki-sky.a(rpl-dag.o)
                0x00002d76                default_instance
                0x00002d78                instance_table
 COMMON         0x00002e76        0x8 contiki-sky.a(linkaddr.o)
                0x00002e76                linkaddr_node_addr
 COMMON         0x00002e7e       0x14 contiki-sky.a(link-stats.o)
                0x00002e7e                periodic_timer
 COMMON         0x00002e92       0x2e contiki-sky.a(packetbuf.o)
                0x00002e92                packetbuf_addrs
                0x00002ea2                packetbuf_attrs
 COMMON         0x00002ec0        0x8 contiki-sky.a(compower.o)
                0x00002ec0                compower_idle_activity
                0x00002ec8                . = ALIGN (0x2)
                0x00002ec8                PROVIDE (__bss_end, .)
                0x00001cd2                PROVIDE (__bss_size, SIZEOF (.bss))

.noinit         0x00002ec8        0x2 load address 0x00010090
                0x00002ec8                PROVIDE (__noinit_start, .)
 *(.noinit .noinit.*)
 .noinit.crt0   0x00002ec8        0x2 /usr/lib/gcc/msp430/4.6.3/mmpy-16/libcrt0.a(__watchdog_support.o)
                0x00002ec8                __wdt_clear_value
                0x00002eca                . = ALIGN (0x2)
                0x00002eca                PROVIDE (__noinit_end, .)
                0x00002eca                . = ALIGN (0x2)
                0x00002eca                _end = .

.infomem        0x00001000        0x0
 *(.infomem)
                0x00001000                . = ALIGN (0x2)
 *(.infomem.*)

.infomemnobits  0x00001000        0x0
 *(.infomemnobits)
                0x00001000                . = ALIGN (0x2)
 *(.infomemnobits.*)

.infoa
 *(.infoa .infoa.*)

.infob
 *(.infob .infob.*)

.infoc
 *(.infoc .infoc.*)

.infod
 *(.infod .infod.*)

.vectors        0x0000ffe0       0x20
                0x0000ffe0                PROVIDE (__vectors_start, .)
 *(.vectors*)
 .vectors       0x0000ffe0       0x20 /usr/lib/gcc/msp430/4.6.3/mmpy-16/crt0ivtbl16.o
                0x0000ffe0                __ivtbl_16
                0x00010000                _vectors_end = .

.fartext        0x00000000        0x0
                0x00000000                . = ALIGN (0x2)
 *(.fartext)
                0x00000000                . = ALIGN (0x2)
 *(.fartext.*)
                0x00000000                _efartext = .

.profiler
 *(.profiler)

.stab           0x00000000    0x2c3d0
 *(.stab)
 .stab          0x00000000     0x1bb4 udp-server.co
 .stab          0x00001bb4      0xc6c obj_sky/collect-common.o
                               0x1074 (size before relaxing)
 .stab          0x00002820     0x1254 obj_sky/contiki-sky-main.o
                               0x1b30 (size before relaxing)
 .stab          0x00003a74      0x258 contiki-sky.a(contiki-sky-pla)
                                0x5b8 (size before relaxing)
 .stab          0x00003ccc      0x468 contiki-sky.a(button-sensor.o)
                                0x7d4 (size before relaxing)
 .stab          0x00004134      0x624 contiki-sky.a(ds2411.o)
                                0xb40 (size before relaxing)
 .stab          0x00004758      0xbac contiki-sky.a(xmem.o)
                                0xf60 (size before relaxing)
 .stab          0x00005304      0x2b8 contiki-sky.a(node-id.o)
                                0x4e0 (size before relaxing)
 .stab          0x000055bc      0x654 contiki-sky.a(sensors.o)
                                0xb70 (size before relaxing)
 .stab          0x00005c10     0x28bc contiki-sky.a(cc2420.o)
                               0x2fe8 (size before relaxing)
 .stab          0x000084cc      0x630 contiki-sky.a(cc2420-arch.o)
                               0x1734 (size before relaxing)
 .stab          0x00008afc      0x60c contiki-sky.a(uart1.o)
                                0x960 (size before relaxing)
 .stab          0x00009108      0x234 contiki-sky.a(uart1-putchar.o)
                                0x588 (size before relaxing)
 .stab          0x0000933c      0x744 contiki-sky.a(msp430.o)
                                0xa98 (size before relaxing)
 .stab          0x00009a80      0x948 contiki-sky.a(clock.o)
                                0xc9c (size before relaxing)
 .stab          0x0000a3c8      0x5dc contiki-sky.a(leds.o)
                                0x828 (size before relaxing)
 .stab          0x0000a9a4      0x3a8 contiki-sky.a(leds-arch.o)
                                0x6fc (size before relaxing)
 .stab          0x0000ad4c      0x3fc contiki-sky.a(watchdog.o)
                                0x750 (size before relaxing)
 .stab          0x0000b148      0x3cc contiki-sky.a(rtimer-arch.o)
                                0x720 (size before relaxing)
 .stab          0x0000b514      0x294 contiki-sky.a(autostart.o)
                                0x534 (size before relaxing)
 .stab          0x0000b7a8      0x858 contiki-sky.a(ctimer.o)
                                0xbc4 (size before relaxing)
 .stab          0x0000c000      0x474 contiki-sky.a(energest.o)
                                0x6fc (size before relaxing)
 .stab          0x0000c474      0xabc contiki-sky.a(etimer.o)
                                0xd8c (size before relaxing)
 .stab          0x0000cf30      0xba0 contiki-sky.a(process.o)
                               0x1038 (size before relaxing)
 .stab          0x0000dad0      0x3d8 contiki-sky.a(rtimer.o)
                                0x6c0 (size before relaxing)
 .stab          0x0000dea8      0x354 contiki-sky.a(timer.o)
                                0x594 (size before relaxing)
 .stab          0x0000e1fc      0x534 contiki-sky.a(serial-line.o)
                                0xa50 (size before relaxing)
 .stab          0x0000e730      0x7f8 contiki-sky.a(list.o)
                                0x804 (size before relaxing)
 .stab          0x0000ef28      0x228 contiki-sky.a(random.o)
                                0x624 (size before relaxing)
 .stab          0x0000f150      0x3fc contiki-sky.a(ringbuf.o)
                                0x63c (size before relaxing)
 .stab          0x0000f54c     0x2934 contiki-sky.a(sicslowpan.o)
                               0x3300 (size before relaxing)
 .stab          0x00011e80     0x2b14 contiki-sky.a(uip6.o)
                               0x3750 (size before relaxing)
 .stab          0x00014994     0x1434 contiki-sky.a(uip-ds6.o)
                               0x210c (size before relaxing)
 .stab          0x00015dc8      0xc9c contiki-sky.a(uip-ds6-nbr.o)
                               0x15a8 (size before relaxing)
 .stab          0x00016a64     0x1554 contiki-sky.a(uip-ds6-route.o)
                               0x216c (size before relaxing)
 .stab          0x00017fb8      0xbdc contiki-sky.a(uip-icmp6.o)
                               0x18d8 (size before relaxing)
 .stab          0x00018b94      0x780 contiki-sky.a(uip-nd6.o)
                               0x13ec (size before relaxing)
 .stab          0x00019314     0x13ec contiki-sky.a(tcpip.o)
                               0x2700 (size before relaxing)
 .stab          0x0001a700      0x3d8 contiki-sky.a(uip-debug.o)
                                0xbac (size before relaxing)
 .stab          0x0001aad8      0xb70 contiki-sky.a(rpl.o)
                               0x198c (size before relaxing)
 .stab          0x0001b648     0x36cc contiki-sky.a(rpl-dag.o)
                               0x4380 (size before relaxing)
 .stab          0x0001ed14      0xa50 contiki-sky.a(rpl-ext-header.)
                               0x1860 (size before relaxing)
 .stab          0x0001f764     0x1a4c contiki-sky.a(rpl-icmp6.o)
                               0x28a4 (size before relaxing)
 .stab          0x000211b0      0x9d8 contiki-sky.a(rpl-mrhof.o)
                               0x17ac (size before relaxing)
 .stab          0x00021b88      0xfc0 contiki-sky.a(rpl-timers.o)
                               0x1d94 (size before relaxing)
 .stab          0x00022b48      0xe94 contiki-sky.a(csma.o)
                               0x165c (size before relaxing)
 .stab          0x000239dc      0x90c contiki-sky.a(framer-802154.o)
                                0xf18 (size before relaxing)
 .stab          0x000242e8      0x1f8 contiki-sky.a(mac.o)
                                0x4ec (size before relaxing)
 .stab          0x000244e0      0x2c4 contiki-sky.a(linkaddr.o)
                                0x6c0 (size before relaxing)
 .stab          0x000247a4      0x7d4 contiki-sky.a(link-stats.o)
                               0x11a0 (size before relaxing)
 .stab          0x00024f78      0xfd8 contiki-sky.a(nbr-table.o)
                               0x1944 (size before relaxing)
 .stab          0x00025f50      0xc6c contiki-sky.a(packetbuf.o)
                               0x1da0 (size before relaxing)
 .stab          0x00026bbc      0xaa4 contiki-sky.a(queuebuf.o)
                               0x1bc0 (size before relaxing)
 .stab          0x00027660     0x174c contiki-sky.a(contikimac.o)
                               0x22ec (size before relaxing)
 .stab          0x00028dac      0x3c0 contiki-sky.a(nullsec.o)
                                0xcf0 (size before relaxing)
 .stab          0x0002916c      0x204 contiki-sky.a(spi.o)
                                0x42c (size before relaxing)
 .stab          0x00029370      0x51c contiki-sky.a(compower.o)
                                0xd20 (size before relaxing)
 .stab          0x0002988c      0x3c0 contiki-sky.a(stimer.o)
                                0x600 (size before relaxing)
 .stab          0x00029c4c      0x5c4 contiki-sky.a(memb.o)
                                0xaf8 (size before relaxing)
 .stab          0x0002a210      0x96c contiki-sky.a(rpl-nbr-policy.)
                               0x1734 (size before relaxing)
 .stab          0x0002ab7c     0x11dc contiki-sky.a(frame802154.o)
                               0x19c8 (size before relaxing)
 .stab          0x0002bd58      0x678 contiki-sky.a(mac-sequence.o)
                               0x17ac (size before relaxing)

.stabstr        0x00000000    0x2044b
 *(.stabstr)
 .stabstr       0x00000000    0x2044b udp-server.co

.stab.excl
 *(.stab.excl)

.stab.exclstr
 *(.stab.exclstr)

.stab.index
 *(.stab.index)

.stab.indexstr
 *(.stab.indexstr)

.comment
 *(.comment)

.debug
 *(.debug)

.line
 *(.line)

.debug_srcinfo
 *(.debug_srcinfo)

.debug_sfnames
 *(.debug_sfnames)

.debug_aranges  0x00000000      0x1a4
 *(.debug_aranges)
 .debug_aranges
                0x00000000       0x14 /usr/lib/gcc/msp430/4.6.3/mmpy-16/libgcc.a(_mulsi3.o)
 .debug_aranges
                0x00000014       0x14 /usr/lib/gcc/msp430/4.6.3/mmpy-16/libgcc.a(_udivmod16.o)
 .debug_aranges
                0x00000028       0x14 /usr/lib/gcc/msp430/4.6.3/mmpy-16/libgcc.a(_divmod16.o)
 .debug_aranges
                0x0000003c       0x14 /usr/lib/gcc/msp430/4.6.3/mmpy-16/libgcc.a(_udivmod32.o)
 .debug_aranges
                0x00000050       0x14 /usr/lib/gcc/msp430/4.6.3/mmpy-16/libgcc.a(_divmod32.o)
 .debug_aranges
                0x00000064       0x14 /usr/lib/gcc/msp430/4.6.3/../../../../msp430/lib/mmpy-16/libc.a(strncmp.o)
 .debug_aranges
                0x00000078       0x14 /usr/lib/gcc/msp430/4.6.3/../../../../msp430/lib/mmpy-16/libc.a(memcmp.o)
 .debug_aranges
                0x0000008c       0x14 /usr/lib/gcc/msp430/4.6.3/../../../../msp430/lib/mmpy-16/libc.a(memcpy.o)
 .debug_aranges
                0x000000a0       0x14 /usr/lib/gcc/msp430/4.6.3/../../../../msp430/lib/mmpy-16/libc.a(memmove.o)
 .debug_aranges
                0x000000b4       0x14 /usr/lib/gcc/msp430/4.6.3/../../../../msp430/lib/mmpy-16/libc.a(memset.o)
 .debug_aranges
                0x000000c8       0x14 /usr/lib/gcc/msp430/4.6.3/../../../../msp430/lib/mmpy-16/libc.a(printf.o)
 .debug_aranges
                0x000000dc       0x14 /usr/lib/gcc/msp430/4.6.3/../../../../msp430/lib/mmpy-16/libc.a(vuprintf.o)
 .debug_aranges
                0x000000f0       0x14 /usr/lib/gcc/msp430/4.6.3/../../../../msp430/lib/mmpy-16/libc.a(puts.o)
 .debug_aranges
                0x00000104       0x14 /usr/lib/gcc/msp430/4.6.3/../../../../msp430/lib/mmpy-16/libc.a(rand.o)
 .debug_aranges
                0x00000118       0x14 /usr/lib/gcc/msp430/4.6.3/mmpy-16/libgcc.a(_udivmod64.o)
 .debug_aranges
                0x0000012c       0x14 /usr/lib/gcc/msp430/4.6.3/mmpy-16/libcrt0.a(__watchdog_support.o)
 .debug_aranges
                0x00000140       0x14 /usr/lib/gcc/msp430/4.6.3/mmpy-16/libcrt0.a(__init_stack.o)
 .debug_aranges
                0x00000154       0x14 /usr/lib/gcc/msp430/4.6.3/mmpy-16/libcrt0.a(_copy_data.o)
 .debug_aranges
                0x00000168       0x14 /usr/lib/gcc/msp430/4.6.3/mmpy-16/libcrt0.a(_clear_bss.o)
 .debug_aranges
                0x0000017c       0x14 /usr/lib/gcc/msp430/4.6.3/mmpy-16/libcrt0.a(_endless_loop__.o)
 .debug_aranges
                0x00000190       0x14 /usr/lib/gcc/msp430/4.6.3/mmpy-16/libcrt0.a(_unexpected_.o)

.debug_pubnames
 *(.debug_pubnames)

.debug_info     0x00000000     0x165a
 *(.debug_info)
 .debug_info    0x00000000       0xd6 /usr/lib/gcc/msp430/4.6.3/mmpy-16/libgcc.a(_mulsi3.o)
 .debug_info    0x000000d6       0xd6 /usr/lib/gcc/msp430/4.6.3/mmpy-16/libgcc.a(_udivmod16.o)
 .debug_info    0x000001ac       0xd6 /usr/lib/gcc/msp430/4.6.3/mmpy-16/libgcc.a(_divmod16.o)
 .debug_info    0x00000282       0xd6 /usr/lib/gcc/msp430/4.6.3/mmpy-16/libgcc.a(_udivmod32.o)
 .debug_info    0x00000358       0xd6 /usr/lib/gcc/msp430/4.6.3/mmpy-16/libgcc.a(_divmod32.o)
 .debug_info    0x0000042e       0xbb /usr/lib/gcc/msp430/4.6.3/../../../../msp430/lib/mmpy-16/libc.a(strncmp.o)
 .debug_info    0x000004e9       0xe8 /usr/lib/gcc/msp430/4.6.3/../../../../msp430/lib/mmpy-16/libc.a(memcmp.o)
 .debug_info    0x000005d1      0x113 /usr/lib/gcc/msp430/4.6.3/../../../../msp430/lib/mmpy-16/libc.a(memcpy.o)
 .debug_info    0x000006e4      0x113 /usr/lib/gcc/msp430/4.6.3/../../../../msp430/lib/mmpy-16/libc.a(memmove.o)
 .debug_info    0x000007f7       0xfe /usr/lib/gcc/msp430/4.6.3/../../../../msp430/lib/mmpy-16/libc.a(memset.o)
 .debug_info    0x000008f5      0x105 /usr/lib/gcc/msp430/4.6.3/../../../../msp430/lib/mmpy-16/libc.a(printf.o)
 .debug_info    0x000009fa      0x565 /usr/lib/gcc/msp430/4.6.3/../../../../msp430/lib/mmpy-16/libc.a(vuprintf.o)
 .debug_info    0x00000f5f       0x96 /usr/lib/gcc/msp430/4.6.3/../../../../msp430/lib/mmpy-16/libc.a(puts.o)
 .debug_info    0x00000ff5      0x13f /usr/lib/gcc/msp430/4.6.3/../../../../msp430/lib/mmpy-16/libc.a(rand.o)
 .debug_info    0x00001134       0xd6 /usr/lib/gcc/msp430/4.6.3/mmpy-16/libgcc.a(_udivmod64.o)
 .debug_info    0x0000120a       0xb8 /usr/lib/gcc/msp430/4.6.3/mmpy-16/libcrt0.a(__watchdog_support.o)
 .debug_info    0x000012c2       0xb8 /usr/lib/gcc/msp430/4.6.3/mmpy-16/libcrt0.a(__init_stack.o)
 .debug_info    0x0000137a       0xb8 /usr/lib/gcc/msp430/4.6.3/mmpy-16/libcrt0.a(_copy_data.o)
 .debug_info    0x00001432       0xb8 /usr/lib/gcc/msp430/4.6.3/mmpy-16/libcrt0.a(_clear_bss.o)
 .debug_info    0x000014ea       0xb8 /usr/lib/gcc/msp430/4.6.3/mmpy-16/libcrt0.a(_endless_loop__.o)
 .debug_info    0x000015a2       0xb8 /usr/lib/gcc/msp430/4.6.3/mmpy-16/libcrt0.a(_unexpected_.o)
 *(.gnu.linkonce.wi.*)

.debug_abbrev   0x00000000      0x7e0
 *(.debug_abbrev)
 .debug_abbrev  0x00000000       0x14 /usr/lib/gcc/msp430/4.6.3/mmpy-16/libgcc.a(_mulsi3.o)
 .debug_abbrev  0x00000014       0x14 /usr/lib/gcc/msp430/4.6.3/mmpy-16/libgcc.a(_udivmod16.o)
 .debug_abbrev  0x00000028       0x14 /usr/lib/gcc/msp430/4.6.3/mmpy-16/libgcc.a(_divmod16.o)
 .debug_abbrev  0x0000003c       0x14 /usr/lib/gcc/msp430/4.6.3/mmpy-16/libgcc.a(_udivmod32.o)
 .debug_abbrev  0x00000050       0x14 /usr/lib/gcc/msp430/4.6.3/mmpy-16/libgcc.a(_divmod32.o)
 .debug_abbrev  0x00000064       0x7c /usr/lib/gcc/msp430/4.6.3/../../../../msp430/lib/mmpy-16/libc.a(strncmp.o)
 .debug_abbrev  0x000000e0       0x9b /usr/lib/gcc/msp430/4.6.3/../../../../msp430/lib/mmpy-16/libc.a(memcmp.o)
 .debug_abbrev  0x0000017b       0x97 /usr/lib/gcc/msp430/4.6.3/../../../../msp430/lib/mmpy-16/libc.a(memcpy.o)
 .debug_abbrev  0x00000212       0x97 /usr/lib/gcc/msp430/4.6.3/../../../../msp430/lib/mmpy-16/libc.a(memmove.o)
 .debug_abbrev  0x000002a9       0x9c /usr/lib/gcc/msp430/4.6.3/../../../../msp430/lib/mmpy-16/libc.a(memset.o)
 .debug_abbrev  0x00000345       0xd0 /usr/lib/gcc/msp430/4.6.3/../../../../msp430/lib/mmpy-16/libc.a(printf.o)
 .debug_abbrev  0x00000415      0x1ef /usr/lib/gcc/msp430/4.6.3/../../../../msp430/lib/mmpy-16/libc.a(vuprintf.o)
 .debug_abbrev  0x00000604       0x60 /usr/lib/gcc/msp430/4.6.3/../../../../msp430/lib/mmpy-16/libc.a(puts.o)
 .debug_abbrev  0x00000664       0xf0 /usr/lib/gcc/msp430/4.6.3/../../../../msp430/lib/mmpy-16/libc.a(rand.o)
 .debug_abbrev  0x00000754       0x14 /usr/lib/gcc/msp430/4.6.3/mmpy-16/libgcc.a(_udivmod64.o)
 .debug_abbrev  0x00000768       0x14 /usr/lib/gcc/msp430/4.6.3/mmpy-16/libcrt0.a(__watchdog_support.o)
 .debug_abbrev  0x0000077c       0x14 /usr/lib/gcc/msp430/4.6.3/mmpy-16/libcrt0.a(__init_stack.o)
 .debug_abbrev  0x00000790       0x14 /usr/lib/gcc/msp430/4.6.3/mmpy-16/libcrt0.a(_copy_data.o)
 .debug_abbrev  0x000007a4       0x14 /usr/lib/gcc/msp430/4.6.3/mmpy-16/libcrt0.a(_clear_bss.o)
 .debug_abbrev  0x000007b8       0x14 /usr/lib/gcc/msp430/4.6.3/mmpy-16/libcrt0.a(_endless_loop__.o)
 .debug_abbrev  0x000007cc       0x14 /usr/lib/gcc/msp430/4.6.3/mmpy-16/libcrt0.a(_unexpected_.o)

.debug_line     0x00000000      0xeaf
 *(.debug_line)
 .debug_line    0x00000000       0xa3 /usr/lib/gcc/msp430/4.6.3/mmpy-16/libgcc.a(_mulsi3.o)
 .debug_line    0x000000a3       0x9c /usr/lib/gcc/msp430/4.6.3/mmpy-16/libgcc.a(_udivmod16.o)
 .debug_line    0x0000013f       0xa7 /usr/lib/gcc/msp430/4.6.3/mmpy-16/libgcc.a(_divmod16.o)
 .debug_line    0x000001e6       0xab /usr/lib/gcc/msp430/4.6.3/mmpy-16/libgcc.a(_udivmod32.o)
 .debug_line    0x00000291       0xb0 /usr/lib/gcc/msp430/4.6.3/mmpy-16/libgcc.a(_divmod32.o)
 .debug_line    0x00000341       0x75 /usr/lib/gcc/msp430/4.6.3/../../../../msp430/lib/mmpy-16/libc.a(strncmp.o)
 .debug_line    0x000003b6       0x73 /usr/lib/gcc/msp430/4.6.3/../../../../msp430/lib/mmpy-16/libc.a(memcmp.o)
 .debug_line    0x00000429       0xe9 /usr/lib/gcc/msp430/4.6.3/../../../../msp430/lib/mmpy-16/libc.a(memcpy.o)
 .debug_line    0x00000512       0xe9 /usr/lib/gcc/msp430/4.6.3/../../../../msp430/lib/mmpy-16/libc.a(memmove.o)
 .debug_line    0x000005fb       0xc8 /usr/lib/gcc/msp430/4.6.3/../../../../msp430/lib/mmpy-16/libc.a(memset.o)
 .debug_line    0x000006c3       0x72 /usr/lib/gcc/msp430/4.6.3/../../../../msp430/lib/mmpy-16/libc.a(printf.o)
 .debug_line    0x00000735      0x2d2 /usr/lib/gcc/msp430/4.6.3/../../../../msp430/lib/mmpy-16/libc.a(vuprintf.o)
 .debug_line    0x00000a07       0x4d /usr/lib/gcc/msp430/4.6.3/../../../../msp430/lib/mmpy-16/libc.a(puts.o)
 .debug_line    0x00000a54       0x4f /usr/lib/gcc/msp430/4.6.3/../../../../msp430/lib/mmpy-16/libc.a(rand.o)
 .debug_line    0x00000aa3       0xf1 /usr/lib/gcc/msp430/4.6.3/mmpy-16/libgcc.a(_udivmod64.o)
 .debug_line    0x00000b94       0x84 /usr/lib/gcc/msp430/4.6.3/mmpy-16/libcrt0.a(__watchdog_support.o)
 .debug_line    0x00000c18       0x82 /usr/lib/gcc/msp430/4.6.3/mmpy-16/libcrt0.a(__init_stack.o)
 .debug_line    0x00000c9a       0x88 /usr/lib/gcc/msp430/4.6.3/mmpy-16/libcrt0.a(_copy_data.o)
 .debug_line    0x00000d22       0x88 /usr/lib/gcc/msp430/4.6.3/mmpy-16/libcrt0.a(_clear_bss.o)
 .debug_line    0x00000daa       0x83 /usr/lib/gcc/msp430/4.6.3/mmpy-16/libcrt0.a(_endless_loop__.o)
 .debug_line    0x00000e2d       0x82 /usr/lib/gcc/msp430/4.6.3/mmpy-16/libcrt0.a(_unexpected_.o)

.debug_frame    0x00000000      0x224
 *(.debug_frame)
 .debug_frame   0x00000000       0x24 /usr/lib/gcc/msp430/4.6.3/../../../../msp430/lib/mmpy-16/libc.a(strncmp.o)
 .debug_frame   0x00000024       0x24 /usr/lib/gcc/msp430/4.6.3/../../../../msp430/lib/mmpy-16/libc.a(memcmp.o)
 .debug_frame   0x00000048       0x38 /usr/lib/gcc/msp430/4.6.3/../../../../msp430/lib/mmpy-16/libc.a(memcpy.o)
 .debug_frame   0x00000080       0x38 /usr/lib/gcc/msp430/4.6.3/../../../../msp430/lib/mmpy-16/libc.a(memmove.o)
 .debug_frame   0x000000b8       0x32 /usr/lib/gcc/msp430/4.6.3/../../../../msp430/lib/mmpy-16/libc.a(memset.o)
 .debug_frame   0x000000ea       0x2a /usr/lib/gcc/msp430/4.6.3/../../../../msp430/lib/mmpy-16/libc.a(printf.o)
 .debug_frame   0x00000114       0xb0 /usr/lib/gcc/msp430/4.6.3/../../../../msp430/lib/mmpy-16/libc.a(vuprintf.o)
 .debug_frame   0x000001c4       0x24 /usr/lib/gcc/msp430/4.6.3/../../../../msp430/lib/mmpy-16/libc.a(puts.o)
 .debug_frame   0x000001e8       0x3c /usr/lib/gcc/msp430/4.6.3/../../../../msp430/lib/mmpy-16/libc.a(rand.o)

.debug_str      0x00000000      0x3f7
 *(.debug_str)
 .debug_str     0x00000000       0xc4 /usr/lib/gcc/msp430/4.6.3/../../../../msp430/lib/mmpy-16/libc.a(strncmp.o)
                                 0xfd (size before relaxing)
 .debug_str     0x000000c4       0x19 /usr/lib/gcc/msp430/4.6.3/../../../../msp430/lib/mmpy-16/libc.a(memcmp.o)
                                 0xfb (size before relaxing)
 .debug_str     0x000000dd       0x34 /usr/lib/gcc/msp430/4.6.3/../../../../msp430/lib/mmpy-16/libc.a(memcpy.o)
                                0x116 (size before relaxing)
 .debug_str     0x00000111       0x1b /usr/lib/gcc/msp430/4.6.3/../../../../msp430/lib/mmpy-16/libc.a(memmove.o)
                                0x118 (size before relaxing)
 .debug_str     0x0000012c       0x26 /usr/lib/gcc/msp430/4.6.3/../../../../msp430/lib/mmpy-16/libc.a(memset.o)
                                0x114 (size before relaxing)
 .debug_str     0x00000152       0x40 /usr/lib/gcc/msp430/4.6.3/../../../../msp430/lib/mmpy-16/libc.a(printf.o)
                                0x12a (size before relaxing)
 .debug_str     0x00000192      0x221 /usr/lib/gcc/msp430/4.6.3/../../../../msp430/lib/mmpy-16/libc.a(vuprintf.o)
                                0x375 (size before relaxing)
 .debug_str     0x000003b3       0x15 /usr/lib/gcc/msp430/4.6.3/../../../../msp430/lib/mmpy-16/libc.a(puts.o)
                                 0xf0 (size before relaxing)
 .debug_str     0x000003c8       0x2f /usr/lib/gcc/msp430/4.6.3/../../../../msp430/lib/mmpy-16/libc.a(rand.o)
                                0x10f (size before relaxing)

.debug_loc      0x00000000      0xcdc
 *(.debug_loc)
 .debug_loc     0x00000000       0x38 /usr/lib/gcc/msp430/4.6.3/../../../../msp430/lib/mmpy-16/libc.a(strncmp.o)
 .debug_loc     0x00000038       0x5e /usr/lib/gcc/msp430/4.6.3/../../../../msp430/lib/mmpy-16/libc.a(memcmp.o)
 .debug_loc     0x00000096      0x1e9 /usr/lib/gcc/msp430/4.6.3/../../../../msp430/lib/mmpy-16/libc.a(memcpy.o)
 .debug_loc     0x0000027f      0x1e9 /usr/lib/gcc/msp430/4.6.3/../../../../msp430/lib/mmpy-16/libc.a(memmove.o)
 .debug_loc     0x00000468       0xdb /usr/lib/gcc/msp430/4.6.3/../../../../msp430/lib/mmpy-16/libc.a(memset.o)
 .debug_loc     0x00000543       0x38 /usr/lib/gcc/msp430/4.6.3/../../../../msp430/lib/mmpy-16/libc.a(printf.o)
 .debug_loc     0x0000057b      0x70c /usr/lib/gcc/msp430/4.6.3/../../../../msp430/lib/mmpy-16/libc.a(vuprintf.o)
 .debug_loc     0x00000c87       0x26 /usr/lib/gcc/msp430/4.6.3/../../../../msp430/lib/mmpy-16/libc.a(puts.o)
 .debug_loc     0x00000cad       0x2f /usr/lib/gcc/msp430/4.6.3/../../../../msp430/lib/mmpy-16/libc.a(rand.o)

.debug_macinfo
 *(.debug_macinfo)

.debug_pubtypes
 *(.debug_pubtypes)

.debug_ranges   0x00000000       0x18
 *(.debug_ranges)
 .debug_ranges  0x00000000       0x18 /usr/lib/gcc/msp430/4.6.3/../../../../msp430/lib/mmpy-16/libc.a(vuprintf.o)
                0x00003900                PROVIDE (__stack, (ORIGIN (ram) + 0x2800))
                0x0000ff9a                PROVIDE (__data_start_rom, _etext)
                0x00010090                PROVIDE (__data_end_rom, (_etext + SIZEOF (.data)))
OUTPUT(udp-server.sky elf32-msp430)
